
C:/Users/Larry/Documents/GitHub/Lab11_caches/part_2/matrix_1.axf:     file format elf32-littlearm


Disassembly of section .text:

00000000 <__cs3_interrupt_vector>:
    .text
    .global _start


_start:
        BL CONFIG_VIRTUAL_MEMORY
       0:	9999999a 	.word	0x9999999a
       4:	3ff19999 	.word	0x3ff19999
       8:	33333333 	.word	0x33333333
       c:	3ff33333 	.word	0x3ff33333
      10:	cccccccd 	.word	0xcccccccd
      14:	4000cccc 	.word	0x4000cccc
      18:	9999999a 	.word	0x9999999a
      1c:	40019999 	.word	0x40019999
      20:	66666666 	.word	0x66666666
      24:	3ff66666 	.word	0x3ff66666
      28:	cccccccd 	.word	0xcccccccd
      2c:	3ff4cccc 	.word	0x3ff4cccc
      30:	00000000 	.word	0x00000000
      34:	3ff80000 	.word	0x3ff80000
      38:	9999999a 	.word	0x9999999a
      3c:	3ff99999 	.word	0x3ff99999
      40:	9999999a 	.word	0x9999999a
      44:	3ff19999 	.word	0x3ff19999
      48:	33333333 	.word	0x33333333
      4c:	3ff33333 	.word	0x3ff33333
      50:	cccccccd 	.word	0xcccccccd
      54:	4000cccc 	.word	0x4000cccc
      58:	9999999a 	.word	0x9999999a
      5c:	40019999 	.word	0x40019999
      60:	66666666 	.word	0x66666666
      64:	3ff66666 	.word	0x3ff66666
      68:	cccccccd 	.word	0xcccccccd
      6c:	3ff4cccc 	.word	0x3ff4cccc
      70:	00000000 	.word	0x00000000
      74:	3ff80000 	.word	0x3ff80000
      78:	9999999a 	.word	0x9999999a
      7c:	3ff99999 	.word	0x3ff99999
      80:	9999999a 	.word	0x9999999a
      84:	3ff19999 	.word	0x3ff19999
      88:	33333333 	.word	0x33333333
      8c:	3ff33333 	.word	0x3ff33333
      90:	cccccccd 	.word	0xcccccccd
      94:	4000cccc 	.word	0x4000cccc
      98:	9999999a 	.word	0x9999999a
      9c:	40019999 	.word	0x40019999
      a0:	66666666 	.word	0x66666666
      a4:	3ff66666 	.word	0x3ff66666
      a8:	cccccccd 	.word	0xcccccccd
      ac:	3ff4cccc 	.word	0x3ff4cccc
      b0:	00000000 	.word	0x00000000
      b4:	3ff80000 	.word	0x3ff80000
      b8:	9999999a 	.word	0x9999999a
      bc:	3ff99999 	.word	0x3ff99999
      c0:	9999999a 	.word	0x9999999a
      c4:	3ff19999 	.word	0x3ff19999
      c8:	33333333 	.word	0x33333333
      cc:	3ff33333 	.word	0x3ff33333
      d0:	cccccccd 	.word	0xcccccccd
      d4:	4000cccc 	.word	0x4000cccc
      d8:	9999999a 	.word	0x9999999a
      dc:	40019999 	.word	0x40019999
      e0:	66666666 	.word	0x66666666
      e4:	3ff66666 	.word	0x3ff66666
      e8:	cccccccd 	.word	0xcccccccd
      ec:	3ff4cccc 	.word	0x3ff4cccc
      f0:	00000000 	.word	0x00000000
      f4:	3ff80000 	.word	0x3ff80000
      f8:	9999999a 	.word	0x9999999a
      fc:	3ff99999 	.word	0x3ff99999
     100:	9999999a 	.word	0x9999999a
     104:	3ff19999 	.word	0x3ff19999
     108:	33333333 	.word	0x33333333
     10c:	3ff33333 	.word	0x3ff33333
     110:	cccccccd 	.word	0xcccccccd
     114:	4000cccc 	.word	0x4000cccc
     118:	9999999a 	.word	0x9999999a
     11c:	40019999 	.word	0x40019999
     120:	66666666 	.word	0x66666666
     124:	3ff66666 	.word	0x3ff66666
     128:	cccccccd 	.word	0xcccccccd
     12c:	3ff4cccc 	.word	0x3ff4cccc
     130:	00000000 	.word	0x00000000
     134:	3ff80000 	.word	0x3ff80000
     138:	9999999a 	.word	0x9999999a
     13c:	3ff99999 	.word	0x3ff99999
     140:	9999999a 	.word	0x9999999a
     144:	3ff19999 	.word	0x3ff19999
     148:	33333333 	.word	0x33333333
     14c:	3ff33333 	.word	0x3ff33333
     150:	cccccccd 	.word	0xcccccccd
     154:	4000cccc 	.word	0x4000cccc
     158:	9999999a 	.word	0x9999999a
     15c:	40019999 	.word	0x40019999
     160:	66666666 	.word	0x66666666
     164:	3ff66666 	.word	0x3ff66666
     168:	cccccccd 	.word	0xcccccccd
     16c:	3ff4cccc 	.word	0x3ff4cccc
     170:	00000000 	.word	0x00000000
     174:	3ff80000 	.word	0x3ff80000
     178:	9999999a 	.word	0x9999999a
     17c:	3ff99999 	.word	0x3ff99999
     180:	9999999a 	.word	0x9999999a
     184:	3ff19999 	.word	0x3ff19999
     188:	33333333 	.word	0x33333333
     18c:	3ff33333 	.word	0x3ff33333
     190:	cccccccd 	.word	0xcccccccd
     194:	4000cccc 	.word	0x4000cccc
     198:	9999999a 	.word	0x9999999a
     19c:	40019999 	.word	0x40019999
     1a0:	66666666 	.word	0x66666666
     1a4:	3ff66666 	.word	0x3ff66666
     1a8:	cccccccd 	.word	0xcccccccd
     1ac:	3ff4cccc 	.word	0x3ff4cccc
     1b0:	00000000 	.word	0x00000000
     1b4:	3ff80000 	.word	0x3ff80000
     1b8:	9999999a 	.word	0x9999999a
     1bc:	3ff99999 	.word	0x3ff99999
     1c0:	9999999a 	.word	0x9999999a
     1c4:	3ff19999 	.word	0x3ff19999
     1c8:	33333333 	.word	0x33333333
     1cc:	3ff33333 	.word	0x3ff33333
     1d0:	cccccccd 	.word	0xcccccccd
     1d4:	4000cccc 	.word	0x4000cccc
     1d8:	9999999a 	.word	0x9999999a
     1dc:	40019999 	.word	0x40019999
     1e0:	66666666 	.word	0x66666666
     1e4:	3ff66666 	.word	0x3ff66666
     1e8:	cccccccd 	.word	0xcccccccd
     1ec:	3ff4cccc 	.word	0x3ff4cccc
     1f0:	00000000 	.word	0x00000000
     1f4:	3ff80000 	.word	0x3ff80000
     1f8:	9999999a 	.word	0x9999999a
     1fc:	3ff99999 	.word	0x3ff99999
     200:	9999999a 	.word	0x9999999a
     204:	3ff19999 	.word	0x3ff19999
     208:	33333333 	.word	0x33333333
     20c:	3ff33333 	.word	0x3ff33333
     210:	cccccccd 	.word	0xcccccccd
     214:	4000cccc 	.word	0x4000cccc
     218:	9999999a 	.word	0x9999999a
     21c:	40019999 	.word	0x40019999
     220:	66666666 	.word	0x66666666
     224:	3ff66666 	.word	0x3ff66666
     228:	cccccccd 	.word	0xcccccccd
     22c:	3ff4cccc 	.word	0x3ff4cccc
     230:	00000000 	.word	0x00000000
     234:	3ff80000 	.word	0x3ff80000
     238:	9999999a 	.word	0x9999999a
     23c:	3ff99999 	.word	0x3ff99999
     240:	9999999a 	.word	0x9999999a
     244:	3ff19999 	.word	0x3ff19999
     248:	33333333 	.word	0x33333333
     24c:	3ff33333 	.word	0x3ff33333
     250:	cccccccd 	.word	0xcccccccd
     254:	4000cccc 	.word	0x4000cccc
     258:	9999999a 	.word	0x9999999a
     25c:	40019999 	.word	0x40019999
     260:	66666666 	.word	0x66666666
     264:	3ff66666 	.word	0x3ff66666
     268:	cccccccd 	.word	0xcccccccd
     26c:	3ff4cccc 	.word	0x3ff4cccc
     270:	00000000 	.word	0x00000000
     274:	3ff80000 	.word	0x3ff80000
     278:	9999999a 	.word	0x9999999a
     27c:	3ff99999 	.word	0x3ff99999
     280:	9999999a 	.word	0x9999999a
     284:	3ff19999 	.word	0x3ff19999
     288:	33333333 	.word	0x33333333
     28c:	3ff33333 	.word	0x3ff33333
     290:	cccccccd 	.word	0xcccccccd
     294:	4000cccc 	.word	0x4000cccc
     298:	9999999a 	.word	0x9999999a
     29c:	40019999 	.word	0x40019999
     2a0:	66666666 	.word	0x66666666
     2a4:	3ff66666 	.word	0x3ff66666
     2a8:	cccccccd 	.word	0xcccccccd
     2ac:	3ff4cccc 	.word	0x3ff4cccc
     2b0:	00000000 	.word	0x00000000
     2b4:	3ff80000 	.word	0x3ff80000
     2b8:	9999999a 	.word	0x9999999a
     2bc:	3ff99999 	.word	0x3ff99999
     2c0:	9999999a 	.word	0x9999999a
     2c4:	3ff19999 	.word	0x3ff19999
     2c8:	33333333 	.word	0x33333333
     2cc:	3ff33333 	.word	0x3ff33333
     2d0:	cccccccd 	.word	0xcccccccd
     2d4:	4000cccc 	.word	0x4000cccc
     2d8:	9999999a 	.word	0x9999999a
     2dc:	40019999 	.word	0x40019999
     2e0:	66666666 	.word	0x66666666
     2e4:	3ff66666 	.word	0x3ff66666
     2e8:	cccccccd 	.word	0xcccccccd
     2ec:	3ff4cccc 	.word	0x3ff4cccc
     2f0:	00000000 	.word	0x00000000
     2f4:	3ff80000 	.word	0x3ff80000
     2f8:	9999999a 	.word	0x9999999a
     2fc:	3ff99999 	.word	0x3ff99999
     300:	9999999a 	.word	0x9999999a
     304:	3ff19999 	.word	0x3ff19999
     308:	33333333 	.word	0x33333333
     30c:	3ff33333 	.word	0x3ff33333
     310:	cccccccd 	.word	0xcccccccd
     314:	4000cccc 	.word	0x4000cccc
     318:	9999999a 	.word	0x9999999a
     31c:	40019999 	.word	0x40019999
     320:	66666666 	.word	0x66666666
     324:	3ff66666 	.word	0x3ff66666
     328:	cccccccd 	.word	0xcccccccd
     32c:	3ff4cccc 	.word	0x3ff4cccc
     330:	00000000 	.word	0x00000000
     334:	3ff80000 	.word	0x3ff80000
     338:	9999999a 	.word	0x9999999a
     33c:	3ff99999 	.word	0x3ff99999
     340:	9999999a 	.word	0x9999999a
     344:	3ff19999 	.word	0x3ff19999
     348:	33333333 	.word	0x33333333
     34c:	3ff33333 	.word	0x3ff33333
     350:	cccccccd 	.word	0xcccccccd
     354:	4000cccc 	.word	0x4000cccc
     358:	9999999a 	.word	0x9999999a
     35c:	40019999 	.word	0x40019999
     360:	66666666 	.word	0x66666666
     364:	3ff66666 	.word	0x3ff66666
     368:	cccccccd 	.word	0xcccccccd
     36c:	3ff4cccc 	.word	0x3ff4cccc
     370:	00000000 	.word	0x00000000
     374:	3ff80000 	.word	0x3ff80000
     378:	9999999a 	.word	0x9999999a
     37c:	3ff99999 	.word	0x3ff99999
     380:	9999999a 	.word	0x9999999a
     384:	3ff19999 	.word	0x3ff19999
     388:	33333333 	.word	0x33333333
     38c:	3ff33333 	.word	0x3ff33333
     390:	cccccccd 	.word	0xcccccccd
     394:	4000cccc 	.word	0x4000cccc
     398:	9999999a 	.word	0x9999999a
     39c:	40019999 	.word	0x40019999
     3a0:	66666666 	.word	0x66666666
     3a4:	3ff66666 	.word	0x3ff66666
     3a8:	cccccccd 	.word	0xcccccccd
     3ac:	3ff4cccc 	.word	0x3ff4cccc
     3b0:	00000000 	.word	0x00000000
     3b4:	3ff80000 	.word	0x3ff80000
     3b8:	9999999a 	.word	0x9999999a
     3bc:	3ff99999 	.word	0x3ff99999
     3c0:	9999999a 	.word	0x9999999a
     3c4:	3ff19999 	.word	0x3ff19999
     3c8:	33333333 	.word	0x33333333
     3cc:	3ff33333 	.word	0x3ff33333
     3d0:	cccccccd 	.word	0xcccccccd
     3d4:	4000cccc 	.word	0x4000cccc
     3d8:	9999999a 	.word	0x9999999a
     3dc:	40019999 	.word	0x40019999
     3e0:	66666666 	.word	0x66666666
     3e4:	3ff66666 	.word	0x3ff66666
     3e8:	cccccccd 	.word	0xcccccccd
     3ec:	3ff4cccc 	.word	0x3ff4cccc
     3f0:	00000000 	.word	0x00000000
     3f4:	3ff80000 	.word	0x3ff80000
     3f8:	9999999a 	.word	0x9999999a
     3fc:	3ff99999 	.word	0x3ff99999
     400:	9999999a 	.word	0x9999999a
     404:	3ff19999 	.word	0x3ff19999
     408:	33333333 	.word	0x33333333
     40c:	3ff33333 	.word	0x3ff33333
     410:	cccccccd 	.word	0xcccccccd
     414:	4000cccc 	.word	0x4000cccc
     418:	9999999a 	.word	0x9999999a
     41c:	40019999 	.word	0x40019999
     420:	66666666 	.word	0x66666666
     424:	3ff66666 	.word	0x3ff66666
     428:	cccccccd 	.word	0xcccccccd
     42c:	3ff4cccc 	.word	0x3ff4cccc
     430:	00000000 	.word	0x00000000
     434:	3ff80000 	.word	0x3ff80000
     438:	9999999a 	.word	0x9999999a
     43c:	3ff99999 	.word	0x3ff99999
     440:	9999999a 	.word	0x9999999a
     444:	3ff19999 	.word	0x3ff19999
     448:	33333333 	.word	0x33333333
     44c:	3ff33333 	.word	0x3ff33333
     450:	cccccccd 	.word	0xcccccccd
     454:	4000cccc 	.word	0x4000cccc
     458:	9999999a 	.word	0x9999999a
     45c:	40019999 	.word	0x40019999
     460:	66666666 	.word	0x66666666
     464:	3ff66666 	.word	0x3ff66666
     468:	cccccccd 	.word	0xcccccccd
     46c:	3ff4cccc 	.word	0x3ff4cccc
     470:	00000000 	.word	0x00000000
     474:	3ff80000 	.word	0x3ff80000
     478:	9999999a 	.word	0x9999999a
     47c:	3ff99999 	.word	0x3ff99999
     480:	9999999a 	.word	0x9999999a
     484:	3ff19999 	.word	0x3ff19999
     488:	33333333 	.word	0x33333333
     48c:	3ff33333 	.word	0x3ff33333
     490:	cccccccd 	.word	0xcccccccd
     494:	4000cccc 	.word	0x4000cccc
     498:	9999999a 	.word	0x9999999a
     49c:	40019999 	.word	0x40019999
     4a0:	66666666 	.word	0x66666666
     4a4:	3ff66666 	.word	0x3ff66666
     4a8:	cccccccd 	.word	0xcccccccd
     4ac:	3ff4cccc 	.word	0x3ff4cccc
     4b0:	00000000 	.word	0x00000000
     4b4:	3ff80000 	.word	0x3ff80000
     4b8:	9999999a 	.word	0x9999999a
     4bc:	3ff99999 	.word	0x3ff99999
     4c0:	9999999a 	.word	0x9999999a
     4c4:	3ff19999 	.word	0x3ff19999
     4c8:	33333333 	.word	0x33333333
     4cc:	3ff33333 	.word	0x3ff33333
     4d0:	cccccccd 	.word	0xcccccccd
     4d4:	4000cccc 	.word	0x4000cccc
     4d8:	9999999a 	.word	0x9999999a
     4dc:	40019999 	.word	0x40019999
     4e0:	66666666 	.word	0x66666666
     4e4:	3ff66666 	.word	0x3ff66666
     4e8:	cccccccd 	.word	0xcccccccd
     4ec:	3ff4cccc 	.word	0x3ff4cccc
     4f0:	00000000 	.word	0x00000000
     4f4:	3ff80000 	.word	0x3ff80000
     4f8:	9999999a 	.word	0x9999999a
     4fc:	3ff99999 	.word	0x3ff99999
     500:	9999999a 	.word	0x9999999a
     504:	3ff19999 	.word	0x3ff19999
     508:	33333333 	.word	0x33333333
     50c:	3ff33333 	.word	0x3ff33333
     510:	cccccccd 	.word	0xcccccccd
     514:	4000cccc 	.word	0x4000cccc
     518:	9999999a 	.word	0x9999999a
     51c:	40019999 	.word	0x40019999
     520:	66666666 	.word	0x66666666
     524:	3ff66666 	.word	0x3ff66666
     528:	cccccccd 	.word	0xcccccccd
     52c:	3ff4cccc 	.word	0x3ff4cccc
     530:	00000000 	.word	0x00000000
     534:	3ff80000 	.word	0x3ff80000
     538:	9999999a 	.word	0x9999999a
     53c:	3ff99999 	.word	0x3ff99999
     540:	9999999a 	.word	0x9999999a
     544:	3ff19999 	.word	0x3ff19999
     548:	33333333 	.word	0x33333333
     54c:	3ff33333 	.word	0x3ff33333
     550:	cccccccd 	.word	0xcccccccd
     554:	4000cccc 	.word	0x4000cccc
     558:	9999999a 	.word	0x9999999a
     55c:	40019999 	.word	0x40019999
     560:	66666666 	.word	0x66666666
     564:	3ff66666 	.word	0x3ff66666
     568:	cccccccd 	.word	0xcccccccd
     56c:	3ff4cccc 	.word	0x3ff4cccc
     570:	00000000 	.word	0x00000000
     574:	3ff80000 	.word	0x3ff80000
     578:	9999999a 	.word	0x9999999a
     57c:	3ff99999 	.word	0x3ff99999
     580:	9999999a 	.word	0x9999999a
     584:	3ff19999 	.word	0x3ff19999
     588:	33333333 	.word	0x33333333
     58c:	3ff33333 	.word	0x3ff33333
     590:	cccccccd 	.word	0xcccccccd
     594:	4000cccc 	.word	0x4000cccc
     598:	9999999a 	.word	0x9999999a
     59c:	40019999 	.word	0x40019999
     5a0:	66666666 	.word	0x66666666
     5a4:	3ff66666 	.word	0x3ff66666
     5a8:	cccccccd 	.word	0xcccccccd
     5ac:	3ff4cccc 	.word	0x3ff4cccc
     5b0:	00000000 	.word	0x00000000
     5b4:	3ff80000 	.word	0x3ff80000
     5b8:	9999999a 	.word	0x9999999a
     5bc:	3ff99999 	.word	0x3ff99999
     5c0:	9999999a 	.word	0x9999999a
     5c4:	3ff19999 	.word	0x3ff19999
     5c8:	33333333 	.word	0x33333333
     5cc:	3ff33333 	.word	0x3ff33333
     5d0:	cccccccd 	.word	0xcccccccd
     5d4:	4000cccc 	.word	0x4000cccc
     5d8:	9999999a 	.word	0x9999999a
     5dc:	40019999 	.word	0x40019999
     5e0:	66666666 	.word	0x66666666
     5e4:	3ff66666 	.word	0x3ff66666
     5e8:	cccccccd 	.word	0xcccccccd
     5ec:	3ff4cccc 	.word	0x3ff4cccc
     5f0:	00000000 	.word	0x00000000
     5f4:	3ff80000 	.word	0x3ff80000
     5f8:	9999999a 	.word	0x9999999a
     5fc:	3ff99999 	.word	0x3ff99999
     600:	9999999a 	.word	0x9999999a
     604:	3ff19999 	.word	0x3ff19999
     608:	33333333 	.word	0x33333333
     60c:	3ff33333 	.word	0x3ff33333
     610:	cccccccd 	.word	0xcccccccd
     614:	4000cccc 	.word	0x4000cccc
     618:	9999999a 	.word	0x9999999a
     61c:	40019999 	.word	0x40019999
     620:	66666666 	.word	0x66666666
     624:	3ff66666 	.word	0x3ff66666
     628:	cccccccd 	.word	0xcccccccd
     62c:	3ff4cccc 	.word	0x3ff4cccc
     630:	00000000 	.word	0x00000000
     634:	3ff80000 	.word	0x3ff80000
     638:	9999999a 	.word	0x9999999a
     63c:	3ff99999 	.word	0x3ff99999
     640:	9999999a 	.word	0x9999999a
     644:	3ff19999 	.word	0x3ff19999
     648:	33333333 	.word	0x33333333
     64c:	3ff33333 	.word	0x3ff33333
     650:	cccccccd 	.word	0xcccccccd
     654:	4000cccc 	.word	0x4000cccc
     658:	9999999a 	.word	0x9999999a
     65c:	40019999 	.word	0x40019999
     660:	66666666 	.word	0x66666666
     664:	3ff66666 	.word	0x3ff66666
     668:	cccccccd 	.word	0xcccccccd
     66c:	3ff4cccc 	.word	0x3ff4cccc
     670:	00000000 	.word	0x00000000
     674:	3ff80000 	.word	0x3ff80000
     678:	9999999a 	.word	0x9999999a
     67c:	3ff99999 	.word	0x3ff99999
     680:	9999999a 	.word	0x9999999a
     684:	3ff19999 	.word	0x3ff19999
     688:	33333333 	.word	0x33333333
     68c:	3ff33333 	.word	0x3ff33333
     690:	cccccccd 	.word	0xcccccccd
     694:	4000cccc 	.word	0x4000cccc
     698:	9999999a 	.word	0x9999999a
     69c:	40019999 	.word	0x40019999
     6a0:	66666666 	.word	0x66666666
     6a4:	3ff66666 	.word	0x3ff66666
     6a8:	cccccccd 	.word	0xcccccccd
     6ac:	3ff4cccc 	.word	0x3ff4cccc
     6b0:	00000000 	.word	0x00000000
     6b4:	3ff80000 	.word	0x3ff80000
     6b8:	9999999a 	.word	0x9999999a
     6bc:	3ff99999 	.word	0x3ff99999
     6c0:	9999999a 	.word	0x9999999a
     6c4:	3ff19999 	.word	0x3ff19999
     6c8:	33333333 	.word	0x33333333
     6cc:	3ff33333 	.word	0x3ff33333
     6d0:	cccccccd 	.word	0xcccccccd
     6d4:	4000cccc 	.word	0x4000cccc
     6d8:	9999999a 	.word	0x9999999a
     6dc:	40019999 	.word	0x40019999
     6e0:	66666666 	.word	0x66666666
     6e4:	3ff66666 	.word	0x3ff66666
     6e8:	cccccccd 	.word	0xcccccccd
     6ec:	3ff4cccc 	.word	0x3ff4cccc
     6f0:	00000000 	.word	0x00000000
     6f4:	3ff80000 	.word	0x3ff80000
     6f8:	9999999a 	.word	0x9999999a
     6fc:	3ff99999 	.word	0x3ff99999
     700:	9999999a 	.word	0x9999999a
     704:	3ff19999 	.word	0x3ff19999
     708:	33333333 	.word	0x33333333
     70c:	3ff33333 	.word	0x3ff33333
     710:	cccccccd 	.word	0xcccccccd
     714:	4000cccc 	.word	0x4000cccc
     718:	9999999a 	.word	0x9999999a
     71c:	40019999 	.word	0x40019999
     720:	66666666 	.word	0x66666666
     724:	3ff66666 	.word	0x3ff66666
     728:	cccccccd 	.word	0xcccccccd
     72c:	3ff4cccc 	.word	0x3ff4cccc
     730:	00000000 	.word	0x00000000
     734:	3ff80000 	.word	0x3ff80000
     738:	9999999a 	.word	0x9999999a
     73c:	3ff99999 	.word	0x3ff99999
     740:	9999999a 	.word	0x9999999a
     744:	3ff19999 	.word	0x3ff19999
     748:	33333333 	.word	0x33333333
     74c:	3ff33333 	.word	0x3ff33333
     750:	cccccccd 	.word	0xcccccccd
     754:	4000cccc 	.word	0x4000cccc
     758:	9999999a 	.word	0x9999999a
     75c:	40019999 	.word	0x40019999
     760:	66666666 	.word	0x66666666
     764:	3ff66666 	.word	0x3ff66666
     768:	cccccccd 	.word	0xcccccccd
     76c:	3ff4cccc 	.word	0x3ff4cccc
     770:	00000000 	.word	0x00000000
     774:	3ff80000 	.word	0x3ff80000
     778:	9999999a 	.word	0x9999999a
     77c:	3ff99999 	.word	0x3ff99999
     780:	9999999a 	.word	0x9999999a
     784:	3ff19999 	.word	0x3ff19999
     788:	33333333 	.word	0x33333333
     78c:	3ff33333 	.word	0x3ff33333
     790:	cccccccd 	.word	0xcccccccd
     794:	4000cccc 	.word	0x4000cccc
     798:	9999999a 	.word	0x9999999a
     79c:	40019999 	.word	0x40019999
     7a0:	66666666 	.word	0x66666666
     7a4:	3ff66666 	.word	0x3ff66666
     7a8:	cccccccd 	.word	0xcccccccd
     7ac:	3ff4cccc 	.word	0x3ff4cccc
     7b0:	00000000 	.word	0x00000000
     7b4:	3ff80000 	.word	0x3ff80000
     7b8:	9999999a 	.word	0x9999999a
     7bc:	3ff99999 	.word	0x3ff99999
     7c0:	9999999a 	.word	0x9999999a
     7c4:	3ff19999 	.word	0x3ff19999
     7c8:	33333333 	.word	0x33333333
     7cc:	3ff33333 	.word	0x3ff33333
     7d0:	cccccccd 	.word	0xcccccccd
     7d4:	4000cccc 	.word	0x4000cccc
     7d8:	9999999a 	.word	0x9999999a
     7dc:	40019999 	.word	0x40019999
     7e0:	66666666 	.word	0x66666666
     7e4:	3ff66666 	.word	0x3ff66666
     7e8:	cccccccd 	.word	0xcccccccd
     7ec:	3ff4cccc 	.word	0x3ff4cccc
     7f0:	00000000 	.word	0x00000000
     7f4:	3ff80000 	.word	0x3ff80000
     7f8:	9999999a 	.word	0x9999999a
     7fc:	3ff99999 	.word	0x3ff99999
     800:	9999999a 	.word	0x9999999a
     804:	3ff19999 	.word	0x3ff19999
     808:	33333333 	.word	0x33333333
     80c:	3ff33333 	.word	0x3ff33333
     810:	cccccccd 	.word	0xcccccccd
     814:	4000cccc 	.word	0x4000cccc
     818:	9999999a 	.word	0x9999999a
     81c:	40019999 	.word	0x40019999
     820:	66666666 	.word	0x66666666
     824:	3ff66666 	.word	0x3ff66666
     828:	cccccccd 	.word	0xcccccccd
     82c:	3ff4cccc 	.word	0x3ff4cccc
     830:	00000000 	.word	0x00000000
     834:	3ff80000 	.word	0x3ff80000
     838:	9999999a 	.word	0x9999999a
     83c:	3ff99999 	.word	0x3ff99999
     840:	9999999a 	.word	0x9999999a
     844:	3ff19999 	.word	0x3ff19999
     848:	33333333 	.word	0x33333333
     84c:	3ff33333 	.word	0x3ff33333
     850:	cccccccd 	.word	0xcccccccd
     854:	4000cccc 	.word	0x4000cccc
     858:	9999999a 	.word	0x9999999a
     85c:	40019999 	.word	0x40019999
     860:	66666666 	.word	0x66666666
     864:	3ff66666 	.word	0x3ff66666
     868:	cccccccd 	.word	0xcccccccd
     86c:	3ff4cccc 	.word	0x3ff4cccc
     870:	00000000 	.word	0x00000000
     874:	3ff80000 	.word	0x3ff80000
     878:	9999999a 	.word	0x9999999a
     87c:	3ff99999 	.word	0x3ff99999
     880:	9999999a 	.word	0x9999999a
     884:	3ff19999 	.word	0x3ff19999
     888:	33333333 	.word	0x33333333
     88c:	3ff33333 	.word	0x3ff33333
     890:	cccccccd 	.word	0xcccccccd
     894:	4000cccc 	.word	0x4000cccc
     898:	9999999a 	.word	0x9999999a
     89c:	40019999 	.word	0x40019999
     8a0:	66666666 	.word	0x66666666
     8a4:	3ff66666 	.word	0x3ff66666
     8a8:	cccccccd 	.word	0xcccccccd
     8ac:	3ff4cccc 	.word	0x3ff4cccc
     8b0:	00000000 	.word	0x00000000
     8b4:	3ff80000 	.word	0x3ff80000
     8b8:	9999999a 	.word	0x9999999a
     8bc:	3ff99999 	.word	0x3ff99999
     8c0:	9999999a 	.word	0x9999999a
     8c4:	3ff19999 	.word	0x3ff19999
     8c8:	33333333 	.word	0x33333333
     8cc:	3ff33333 	.word	0x3ff33333
     8d0:	cccccccd 	.word	0xcccccccd
     8d4:	4000cccc 	.word	0x4000cccc
     8d8:	9999999a 	.word	0x9999999a
     8dc:	40019999 	.word	0x40019999
     8e0:	66666666 	.word	0x66666666
     8e4:	3ff66666 	.word	0x3ff66666
     8e8:	cccccccd 	.word	0xcccccccd
     8ec:	3ff4cccc 	.word	0x3ff4cccc
     8f0:	00000000 	.word	0x00000000
     8f4:	3ff80000 	.word	0x3ff80000
     8f8:	9999999a 	.word	0x9999999a
     8fc:	3ff99999 	.word	0x3ff99999
     900:	9999999a 	.word	0x9999999a
     904:	3ff19999 	.word	0x3ff19999
     908:	33333333 	.word	0x33333333
     90c:	3ff33333 	.word	0x3ff33333
     910:	cccccccd 	.word	0xcccccccd
     914:	4000cccc 	.word	0x4000cccc
     918:	9999999a 	.word	0x9999999a
     91c:	40019999 	.word	0x40019999
     920:	66666666 	.word	0x66666666
     924:	3ff66666 	.word	0x3ff66666
     928:	cccccccd 	.word	0xcccccccd
     92c:	3ff4cccc 	.word	0x3ff4cccc
     930:	00000000 	.word	0x00000000
     934:	3ff80000 	.word	0x3ff80000
     938:	9999999a 	.word	0x9999999a
     93c:	3ff99999 	.word	0x3ff99999
     940:	9999999a 	.word	0x9999999a
     944:	3ff19999 	.word	0x3ff19999
     948:	33333333 	.word	0x33333333
     94c:	3ff33333 	.word	0x3ff33333
     950:	cccccccd 	.word	0xcccccccd
     954:	4000cccc 	.word	0x4000cccc
     958:	9999999a 	.word	0x9999999a
     95c:	40019999 	.word	0x40019999
     960:	66666666 	.word	0x66666666
     964:	3ff66666 	.word	0x3ff66666
     968:	cccccccd 	.word	0xcccccccd
     96c:	3ff4cccc 	.word	0x3ff4cccc
     970:	00000000 	.word	0x00000000
     974:	3ff80000 	.word	0x3ff80000
     978:	9999999a 	.word	0x9999999a
     97c:	3ff99999 	.word	0x3ff99999
     980:	9999999a 	.word	0x9999999a
     984:	3ff19999 	.word	0x3ff19999
     988:	33333333 	.word	0x33333333
     98c:	3ff33333 	.word	0x3ff33333
     990:	cccccccd 	.word	0xcccccccd
     994:	4000cccc 	.word	0x4000cccc
     998:	9999999a 	.word	0x9999999a
     99c:	40019999 	.word	0x40019999
     9a0:	66666666 	.word	0x66666666
     9a4:	3ff66666 	.word	0x3ff66666
     9a8:	cccccccd 	.word	0xcccccccd
     9ac:	3ff4cccc 	.word	0x3ff4cccc
     9b0:	00000000 	.word	0x00000000
     9b4:	3ff80000 	.word	0x3ff80000
     9b8:	9999999a 	.word	0x9999999a
     9bc:	3ff99999 	.word	0x3ff99999
     9c0:	9999999a 	.word	0x9999999a
     9c4:	3ff19999 	.word	0x3ff19999
     9c8:	33333333 	.word	0x33333333
     9cc:	3ff33333 	.word	0x3ff33333
     9d0:	cccccccd 	.word	0xcccccccd
     9d4:	4000cccc 	.word	0x4000cccc
     9d8:	9999999a 	.word	0x9999999a
     9dc:	40019999 	.word	0x40019999
     9e0:	66666666 	.word	0x66666666
     9e4:	3ff66666 	.word	0x3ff66666
     9e8:	cccccccd 	.word	0xcccccccd
     9ec:	3ff4cccc 	.word	0x3ff4cccc
     9f0:	00000000 	.word	0x00000000
     9f4:	3ff80000 	.word	0x3ff80000
     9f8:	9999999a 	.word	0x9999999a
     9fc:	3ff99999 	.word	0x3ff99999
     a00:	9999999a 	.word	0x9999999a
     a04:	3ff19999 	.word	0x3ff19999
     a08:	33333333 	.word	0x33333333
     a0c:	3ff33333 	.word	0x3ff33333
     a10:	cccccccd 	.word	0xcccccccd
     a14:	4000cccc 	.word	0x4000cccc
     a18:	9999999a 	.word	0x9999999a
     a1c:	40019999 	.word	0x40019999
     a20:	66666666 	.word	0x66666666
     a24:	3ff66666 	.word	0x3ff66666
     a28:	cccccccd 	.word	0xcccccccd
     a2c:	3ff4cccc 	.word	0x3ff4cccc
     a30:	00000000 	.word	0x00000000
     a34:	3ff80000 	.word	0x3ff80000
     a38:	9999999a 	.word	0x9999999a
     a3c:	3ff99999 	.word	0x3ff99999
     a40:	9999999a 	.word	0x9999999a
     a44:	3ff19999 	.word	0x3ff19999
     a48:	33333333 	.word	0x33333333
     a4c:	3ff33333 	.word	0x3ff33333
     a50:	cccccccd 	.word	0xcccccccd
     a54:	4000cccc 	.word	0x4000cccc
     a58:	9999999a 	.word	0x9999999a
     a5c:	40019999 	.word	0x40019999
     a60:	66666666 	.word	0x66666666
     a64:	3ff66666 	.word	0x3ff66666
     a68:	cccccccd 	.word	0xcccccccd
     a6c:	3ff4cccc 	.word	0x3ff4cccc
     a70:	00000000 	.word	0x00000000
     a74:	3ff80000 	.word	0x3ff80000
     a78:	9999999a 	.word	0x9999999a
     a7c:	3ff99999 	.word	0x3ff99999
     a80:	9999999a 	.word	0x9999999a
     a84:	3ff19999 	.word	0x3ff19999
     a88:	33333333 	.word	0x33333333
     a8c:	3ff33333 	.word	0x3ff33333
     a90:	cccccccd 	.word	0xcccccccd
     a94:	4000cccc 	.word	0x4000cccc
     a98:	9999999a 	.word	0x9999999a
     a9c:	40019999 	.word	0x40019999
     aa0:	66666666 	.word	0x66666666
     aa4:	3ff66666 	.word	0x3ff66666
     aa8:	cccccccd 	.word	0xcccccccd
     aac:	3ff4cccc 	.word	0x3ff4cccc
     ab0:	00000000 	.word	0x00000000
     ab4:	3ff80000 	.word	0x3ff80000
     ab8:	9999999a 	.word	0x9999999a
     abc:	3ff99999 	.word	0x3ff99999
     ac0:	9999999a 	.word	0x9999999a
     ac4:	3ff19999 	.word	0x3ff19999
     ac8:	33333333 	.word	0x33333333
     acc:	3ff33333 	.word	0x3ff33333
     ad0:	cccccccd 	.word	0xcccccccd
     ad4:	4000cccc 	.word	0x4000cccc
     ad8:	9999999a 	.word	0x9999999a
     adc:	40019999 	.word	0x40019999
     ae0:	66666666 	.word	0x66666666
     ae4:	3ff66666 	.word	0x3ff66666
     ae8:	cccccccd 	.word	0xcccccccd
     aec:	3ff4cccc 	.word	0x3ff4cccc
     af0:	00000000 	.word	0x00000000
     af4:	3ff80000 	.word	0x3ff80000
     af8:	9999999a 	.word	0x9999999a
     afc:	3ff99999 	.word	0x3ff99999
     b00:	9999999a 	.word	0x9999999a
     b04:	3ff19999 	.word	0x3ff19999
     b08:	33333333 	.word	0x33333333
     b0c:	3ff33333 	.word	0x3ff33333
     b10:	cccccccd 	.word	0xcccccccd
     b14:	4000cccc 	.word	0x4000cccc
     b18:	9999999a 	.word	0x9999999a
     b1c:	40019999 	.word	0x40019999
     b20:	66666666 	.word	0x66666666
     b24:	3ff66666 	.word	0x3ff66666
     b28:	cccccccd 	.word	0xcccccccd
     b2c:	3ff4cccc 	.word	0x3ff4cccc
     b30:	00000000 	.word	0x00000000
     b34:	3ff80000 	.word	0x3ff80000
     b38:	9999999a 	.word	0x9999999a
     b3c:	3ff99999 	.word	0x3ff99999
     b40:	9999999a 	.word	0x9999999a
     b44:	3ff19999 	.word	0x3ff19999
     b48:	33333333 	.word	0x33333333
     b4c:	3ff33333 	.word	0x3ff33333
     b50:	cccccccd 	.word	0xcccccccd
     b54:	4000cccc 	.word	0x4000cccc
     b58:	9999999a 	.word	0x9999999a
     b5c:	40019999 	.word	0x40019999
     b60:	66666666 	.word	0x66666666
     b64:	3ff66666 	.word	0x3ff66666
     b68:	cccccccd 	.word	0xcccccccd
     b6c:	3ff4cccc 	.word	0x3ff4cccc
     b70:	00000000 	.word	0x00000000
     b74:	3ff80000 	.word	0x3ff80000
     b78:	9999999a 	.word	0x9999999a
     b7c:	3ff99999 	.word	0x3ff99999
     b80:	9999999a 	.word	0x9999999a
     b84:	3ff19999 	.word	0x3ff19999
     b88:	33333333 	.word	0x33333333
     b8c:	3ff33333 	.word	0x3ff33333
     b90:	cccccccd 	.word	0xcccccccd
     b94:	4000cccc 	.word	0x4000cccc
     b98:	9999999a 	.word	0x9999999a
     b9c:	40019999 	.word	0x40019999
     ba0:	66666666 	.word	0x66666666
     ba4:	3ff66666 	.word	0x3ff66666
     ba8:	cccccccd 	.word	0xcccccccd
     bac:	3ff4cccc 	.word	0x3ff4cccc
     bb0:	00000000 	.word	0x00000000
     bb4:	3ff80000 	.word	0x3ff80000
     bb8:	9999999a 	.word	0x9999999a
     bbc:	3ff99999 	.word	0x3ff99999
     bc0:	9999999a 	.word	0x9999999a
     bc4:	3ff19999 	.word	0x3ff19999
     bc8:	33333333 	.word	0x33333333
     bcc:	3ff33333 	.word	0x3ff33333
     bd0:	cccccccd 	.word	0xcccccccd
     bd4:	4000cccc 	.word	0x4000cccc
     bd8:	9999999a 	.word	0x9999999a
     bdc:	40019999 	.word	0x40019999
     be0:	66666666 	.word	0x66666666
     be4:	3ff66666 	.word	0x3ff66666
     be8:	cccccccd 	.word	0xcccccccd
     bec:	3ff4cccc 	.word	0x3ff4cccc
     bf0:	00000000 	.word	0x00000000
     bf4:	3ff80000 	.word	0x3ff80000
     bf8:	9999999a 	.word	0x9999999a
     bfc:	3ff99999 	.word	0x3ff99999
     c00:	9999999a 	.word	0x9999999a
     c04:	3ff19999 	.word	0x3ff19999
     c08:	33333333 	.word	0x33333333
     c0c:	3ff33333 	.word	0x3ff33333
     c10:	cccccccd 	.word	0xcccccccd
     c14:	4000cccc 	.word	0x4000cccc
     c18:	9999999a 	.word	0x9999999a
     c1c:	40019999 	.word	0x40019999
     c20:	66666666 	.word	0x66666666
     c24:	3ff66666 	.word	0x3ff66666
     c28:	cccccccd 	.word	0xcccccccd
     c2c:	3ff4cccc 	.word	0x3ff4cccc
     c30:	00000000 	.word	0x00000000
     c34:	3ff80000 	.word	0x3ff80000
     c38:	9999999a 	.word	0x9999999a
     c3c:	3ff99999 	.word	0x3ff99999
     c40:	9999999a 	.word	0x9999999a
     c44:	3ff19999 	.word	0x3ff19999
     c48:	33333333 	.word	0x33333333
     c4c:	3ff33333 	.word	0x3ff33333
     c50:	cccccccd 	.word	0xcccccccd
     c54:	4000cccc 	.word	0x4000cccc
     c58:	9999999a 	.word	0x9999999a
     c5c:	40019999 	.word	0x40019999
     c60:	66666666 	.word	0x66666666
     c64:	3ff66666 	.word	0x3ff66666
     c68:	cccccccd 	.word	0xcccccccd
     c6c:	3ff4cccc 	.word	0x3ff4cccc
     c70:	00000000 	.word	0x00000000
     c74:	3ff80000 	.word	0x3ff80000
     c78:	9999999a 	.word	0x9999999a
     c7c:	3ff99999 	.word	0x3ff99999
     c80:	9999999a 	.word	0x9999999a
     c84:	3ff19999 	.word	0x3ff19999
     c88:	33333333 	.word	0x33333333
     c8c:	3ff33333 	.word	0x3ff33333
     c90:	cccccccd 	.word	0xcccccccd
     c94:	4000cccc 	.word	0x4000cccc
     c98:	9999999a 	.word	0x9999999a
     c9c:	40019999 	.word	0x40019999
     ca0:	66666666 	.word	0x66666666
     ca4:	3ff66666 	.word	0x3ff66666
     ca8:	cccccccd 	.word	0xcccccccd
     cac:	3ff4cccc 	.word	0x3ff4cccc
     cb0:	00000000 	.word	0x00000000
     cb4:	3ff80000 	.word	0x3ff80000
     cb8:	9999999a 	.word	0x9999999a
     cbc:	3ff99999 	.word	0x3ff99999
     cc0:	9999999a 	.word	0x9999999a
     cc4:	3ff19999 	.word	0x3ff19999
     cc8:	33333333 	.word	0x33333333
     ccc:	3ff33333 	.word	0x3ff33333
     cd0:	cccccccd 	.word	0xcccccccd
     cd4:	4000cccc 	.word	0x4000cccc
     cd8:	9999999a 	.word	0x9999999a
     cdc:	40019999 	.word	0x40019999
     ce0:	66666666 	.word	0x66666666
     ce4:	3ff66666 	.word	0x3ff66666
     ce8:	cccccccd 	.word	0xcccccccd
     cec:	3ff4cccc 	.word	0x3ff4cccc
     cf0:	00000000 	.word	0x00000000
     cf4:	3ff80000 	.word	0x3ff80000
     cf8:	9999999a 	.word	0x9999999a
     cfc:	3ff99999 	.word	0x3ff99999
     d00:	9999999a 	.word	0x9999999a
     d04:	3ff19999 	.word	0x3ff19999
     d08:	33333333 	.word	0x33333333
     d0c:	3ff33333 	.word	0x3ff33333
     d10:	cccccccd 	.word	0xcccccccd
     d14:	4000cccc 	.word	0x4000cccc
     d18:	9999999a 	.word	0x9999999a
     d1c:	40019999 	.word	0x40019999
     d20:	66666666 	.word	0x66666666
     d24:	3ff66666 	.word	0x3ff66666
     d28:	cccccccd 	.word	0xcccccccd
     d2c:	3ff4cccc 	.word	0x3ff4cccc
     d30:	00000000 	.word	0x00000000
     d34:	3ff80000 	.word	0x3ff80000
     d38:	9999999a 	.word	0x9999999a
     d3c:	3ff99999 	.word	0x3ff99999
     d40:	9999999a 	.word	0x9999999a
     d44:	3ff19999 	.word	0x3ff19999
     d48:	33333333 	.word	0x33333333
     d4c:	3ff33333 	.word	0x3ff33333
     d50:	cccccccd 	.word	0xcccccccd
     d54:	4000cccc 	.word	0x4000cccc
     d58:	9999999a 	.word	0x9999999a
     d5c:	40019999 	.word	0x40019999
     d60:	66666666 	.word	0x66666666
     d64:	3ff66666 	.word	0x3ff66666
     d68:	cccccccd 	.word	0xcccccccd
     d6c:	3ff4cccc 	.word	0x3ff4cccc
     d70:	00000000 	.word	0x00000000
     d74:	3ff80000 	.word	0x3ff80000
     d78:	9999999a 	.word	0x9999999a
     d7c:	3ff99999 	.word	0x3ff99999
     d80:	9999999a 	.word	0x9999999a
     d84:	3ff19999 	.word	0x3ff19999
     d88:	33333333 	.word	0x33333333
     d8c:	3ff33333 	.word	0x3ff33333
     d90:	cccccccd 	.word	0xcccccccd
     d94:	4000cccc 	.word	0x4000cccc
     d98:	9999999a 	.word	0x9999999a
     d9c:	40019999 	.word	0x40019999
     da0:	66666666 	.word	0x66666666
     da4:	3ff66666 	.word	0x3ff66666
     da8:	cccccccd 	.word	0xcccccccd
     dac:	3ff4cccc 	.word	0x3ff4cccc
     db0:	00000000 	.word	0x00000000
     db4:	3ff80000 	.word	0x3ff80000
     db8:	9999999a 	.word	0x9999999a
     dbc:	3ff99999 	.word	0x3ff99999
     dc0:	9999999a 	.word	0x9999999a
     dc4:	3ff19999 	.word	0x3ff19999
     dc8:	33333333 	.word	0x33333333
     dcc:	3ff33333 	.word	0x3ff33333
     dd0:	cccccccd 	.word	0xcccccccd
     dd4:	4000cccc 	.word	0x4000cccc
     dd8:	9999999a 	.word	0x9999999a
     ddc:	40019999 	.word	0x40019999
     de0:	66666666 	.word	0x66666666
     de4:	3ff66666 	.word	0x3ff66666
     de8:	cccccccd 	.word	0xcccccccd
     dec:	3ff4cccc 	.word	0x3ff4cccc
     df0:	00000000 	.word	0x00000000
     df4:	3ff80000 	.word	0x3ff80000
     df8:	9999999a 	.word	0x9999999a
     dfc:	3ff99999 	.word	0x3ff99999
     e00:	9999999a 	.word	0x9999999a
     e04:	3ff19999 	.word	0x3ff19999
     e08:	33333333 	.word	0x33333333
     e0c:	3ff33333 	.word	0x3ff33333
     e10:	cccccccd 	.word	0xcccccccd
     e14:	4000cccc 	.word	0x4000cccc
     e18:	9999999a 	.word	0x9999999a
     e1c:	40019999 	.word	0x40019999
     e20:	66666666 	.word	0x66666666
     e24:	3ff66666 	.word	0x3ff66666
     e28:	cccccccd 	.word	0xcccccccd
     e2c:	3ff4cccc 	.word	0x3ff4cccc
     e30:	00000000 	.word	0x00000000
     e34:	3ff80000 	.word	0x3ff80000
     e38:	9999999a 	.word	0x9999999a
     e3c:	3ff99999 	.word	0x3ff99999
     e40:	9999999a 	.word	0x9999999a
     e44:	3ff19999 	.word	0x3ff19999
     e48:	33333333 	.word	0x33333333
     e4c:	3ff33333 	.word	0x3ff33333
     e50:	cccccccd 	.word	0xcccccccd
     e54:	4000cccc 	.word	0x4000cccc
     e58:	9999999a 	.word	0x9999999a
     e5c:	40019999 	.word	0x40019999
     e60:	66666666 	.word	0x66666666
     e64:	3ff66666 	.word	0x3ff66666
     e68:	cccccccd 	.word	0xcccccccd
     e6c:	3ff4cccc 	.word	0x3ff4cccc
     e70:	00000000 	.word	0x00000000
     e74:	3ff80000 	.word	0x3ff80000
     e78:	9999999a 	.word	0x9999999a
     e7c:	3ff99999 	.word	0x3ff99999
     e80:	9999999a 	.word	0x9999999a
     e84:	3ff19999 	.word	0x3ff19999
     e88:	33333333 	.word	0x33333333
     e8c:	3ff33333 	.word	0x3ff33333
     e90:	cccccccd 	.word	0xcccccccd
     e94:	4000cccc 	.word	0x4000cccc
     e98:	9999999a 	.word	0x9999999a
     e9c:	40019999 	.word	0x40019999
     ea0:	66666666 	.word	0x66666666
     ea4:	3ff66666 	.word	0x3ff66666
     ea8:	cccccccd 	.word	0xcccccccd
     eac:	3ff4cccc 	.word	0x3ff4cccc
     eb0:	00000000 	.word	0x00000000
     eb4:	3ff80000 	.word	0x3ff80000
     eb8:	9999999a 	.word	0x9999999a
     ebc:	3ff99999 	.word	0x3ff99999
     ec0:	9999999a 	.word	0x9999999a
     ec4:	3ff19999 	.word	0x3ff19999
     ec8:	33333333 	.word	0x33333333
     ecc:	3ff33333 	.word	0x3ff33333
     ed0:	cccccccd 	.word	0xcccccccd
     ed4:	4000cccc 	.word	0x4000cccc
     ed8:	9999999a 	.word	0x9999999a
     edc:	40019999 	.word	0x40019999
     ee0:	66666666 	.word	0x66666666
     ee4:	3ff66666 	.word	0x3ff66666
     ee8:	cccccccd 	.word	0xcccccccd
     eec:	3ff4cccc 	.word	0x3ff4cccc
     ef0:	00000000 	.word	0x00000000
     ef4:	3ff80000 	.word	0x3ff80000
     ef8:	9999999a 	.word	0x9999999a
     efc:	3ff99999 	.word	0x3ff99999
     f00:	9999999a 	.word	0x9999999a
     f04:	3ff19999 	.word	0x3ff19999
     f08:	33333333 	.word	0x33333333
     f0c:	3ff33333 	.word	0x3ff33333
     f10:	cccccccd 	.word	0xcccccccd
     f14:	4000cccc 	.word	0x4000cccc
     f18:	9999999a 	.word	0x9999999a
     f1c:	40019999 	.word	0x40019999
     f20:	66666666 	.word	0x66666666
     f24:	3ff66666 	.word	0x3ff66666
     f28:	cccccccd 	.word	0xcccccccd
     f2c:	3ff4cccc 	.word	0x3ff4cccc
     f30:	00000000 	.word	0x00000000
     f34:	3ff80000 	.word	0x3ff80000
     f38:	9999999a 	.word	0x9999999a
     f3c:	3ff99999 	.word	0x3ff99999
     f40:	9999999a 	.word	0x9999999a
     f44:	3ff19999 	.word	0x3ff19999
     f48:	33333333 	.word	0x33333333
     f4c:	3ff33333 	.word	0x3ff33333
     f50:	cccccccd 	.word	0xcccccccd
     f54:	4000cccc 	.word	0x4000cccc
     f58:	9999999a 	.word	0x9999999a
     f5c:	40019999 	.word	0x40019999
     f60:	66666666 	.word	0x66666666
     f64:	3ff66666 	.word	0x3ff66666
     f68:	cccccccd 	.word	0xcccccccd
     f6c:	3ff4cccc 	.word	0x3ff4cccc
     f70:	00000000 	.word	0x00000000
     f74:	3ff80000 	.word	0x3ff80000
     f78:	9999999a 	.word	0x9999999a
     f7c:	3ff99999 	.word	0x3ff99999
     f80:	9999999a 	.word	0x9999999a
     f84:	3ff19999 	.word	0x3ff19999
     f88:	33333333 	.word	0x33333333
     f8c:	3ff33333 	.word	0x3ff33333
     f90:	cccccccd 	.word	0xcccccccd
     f94:	4000cccc 	.word	0x4000cccc
     f98:	9999999a 	.word	0x9999999a
     f9c:	40019999 	.word	0x40019999
     fa0:	66666666 	.word	0x66666666
     fa4:	3ff66666 	.word	0x3ff66666
     fa8:	cccccccd 	.word	0xcccccccd
     fac:	3ff4cccc 	.word	0x3ff4cccc
     fb0:	00000000 	.word	0x00000000
     fb4:	3ff80000 	.word	0x3ff80000
     fb8:	9999999a 	.word	0x9999999a
     fbc:	3ff99999 	.word	0x3ff99999
     fc0:	9999999a 	.word	0x9999999a
     fc4:	3ff19999 	.word	0x3ff19999
     fc8:	33333333 	.word	0x33333333
     fcc:	3ff33333 	.word	0x3ff33333
     fd0:	cccccccd 	.word	0xcccccccd
     fd4:	4000cccc 	.word	0x4000cccc
     fd8:	9999999a 	.word	0x9999999a
     fdc:	40019999 	.word	0x40019999
     fe0:	66666666 	.word	0x66666666
     fe4:	3ff66666 	.word	0x3ff66666
     fe8:	cccccccd 	.word	0xcccccccd
     fec:	3ff4cccc 	.word	0x3ff4cccc
     ff0:	00000000 	.word	0x00000000
     ff4:	3ff80000 	.word	0x3ff80000
     ff8:	9999999a 	.word	0x9999999a
     ffc:	3ff99999 	.word	0x3ff99999
    1000:	9999999a 	.word	0x9999999a
    1004:	3ff19999 	.word	0x3ff19999
    1008:	33333333 	.word	0x33333333
    100c:	3ff33333 	.word	0x3ff33333
    1010:	cccccccd 	.word	0xcccccccd
    1014:	4000cccc 	.word	0x4000cccc
    1018:	9999999a 	.word	0x9999999a
    101c:	40019999 	.word	0x40019999
    1020:	66666666 	.word	0x66666666
    1024:	3ff66666 	.word	0x3ff66666
    1028:	cccccccd 	.word	0xcccccccd
    102c:	3ff4cccc 	.word	0x3ff4cccc
    1030:	00000000 	.word	0x00000000
    1034:	3ff80000 	.word	0x3ff80000
    1038:	9999999a 	.word	0x9999999a
    103c:	3ff99999 	.word	0x3ff99999
    1040:	9999999a 	.word	0x9999999a
    1044:	3ff19999 	.word	0x3ff19999
    1048:	33333333 	.word	0x33333333
    104c:	3ff33333 	.word	0x3ff33333
    1050:	cccccccd 	.word	0xcccccccd
    1054:	4000cccc 	.word	0x4000cccc
    1058:	9999999a 	.word	0x9999999a
    105c:	40019999 	.word	0x40019999
    1060:	66666666 	.word	0x66666666
    1064:	3ff66666 	.word	0x3ff66666
    1068:	cccccccd 	.word	0xcccccccd
    106c:	3ff4cccc 	.word	0x3ff4cccc
    1070:	00000000 	.word	0x00000000
    1074:	3ff80000 	.word	0x3ff80000
    1078:	9999999a 	.word	0x9999999a
    107c:	3ff99999 	.word	0x3ff99999
    1080:	9999999a 	.word	0x9999999a
    1084:	3ff19999 	.word	0x3ff19999
    1088:	33333333 	.word	0x33333333
    108c:	3ff33333 	.word	0x3ff33333
    1090:	cccccccd 	.word	0xcccccccd
    1094:	4000cccc 	.word	0x4000cccc
    1098:	9999999a 	.word	0x9999999a
    109c:	40019999 	.word	0x40019999
    10a0:	66666666 	.word	0x66666666
    10a4:	3ff66666 	.word	0x3ff66666
    10a8:	cccccccd 	.word	0xcccccccd
    10ac:	3ff4cccc 	.word	0x3ff4cccc
    10b0:	00000000 	.word	0x00000000
    10b4:	3ff80000 	.word	0x3ff80000
    10b8:	9999999a 	.word	0x9999999a
    10bc:	3ff99999 	.word	0x3ff99999
    10c0:	9999999a 	.word	0x9999999a
    10c4:	3ff19999 	.word	0x3ff19999
    10c8:	33333333 	.word	0x33333333
    10cc:	3ff33333 	.word	0x3ff33333
    10d0:	cccccccd 	.word	0xcccccccd
    10d4:	4000cccc 	.word	0x4000cccc
    10d8:	9999999a 	.word	0x9999999a
    10dc:	40019999 	.word	0x40019999
    10e0:	66666666 	.word	0x66666666
    10e4:	3ff66666 	.word	0x3ff66666
    10e8:	cccccccd 	.word	0xcccccccd
    10ec:	3ff4cccc 	.word	0x3ff4cccc
    10f0:	00000000 	.word	0x00000000
    10f4:	3ff80000 	.word	0x3ff80000
    10f8:	9999999a 	.word	0x9999999a
    10fc:	3ff99999 	.word	0x3ff99999
    1100:	9999999a 	.word	0x9999999a
    1104:	3ff19999 	.word	0x3ff19999
    1108:	33333333 	.word	0x33333333
    110c:	3ff33333 	.word	0x3ff33333
    1110:	cccccccd 	.word	0xcccccccd
    1114:	4000cccc 	.word	0x4000cccc
    1118:	9999999a 	.word	0x9999999a
    111c:	40019999 	.word	0x40019999
    1120:	66666666 	.word	0x66666666
    1124:	3ff66666 	.word	0x3ff66666
    1128:	cccccccd 	.word	0xcccccccd
    112c:	3ff4cccc 	.word	0x3ff4cccc
    1130:	00000000 	.word	0x00000000
    1134:	3ff80000 	.word	0x3ff80000
    1138:	9999999a 	.word	0x9999999a
    113c:	3ff99999 	.word	0x3ff99999
    1140:	9999999a 	.word	0x9999999a
    1144:	3ff19999 	.word	0x3ff19999
    1148:	33333333 	.word	0x33333333
    114c:	3ff33333 	.word	0x3ff33333
    1150:	cccccccd 	.word	0xcccccccd
    1154:	4000cccc 	.word	0x4000cccc
    1158:	9999999a 	.word	0x9999999a
    115c:	40019999 	.word	0x40019999
    1160:	66666666 	.word	0x66666666
    1164:	3ff66666 	.word	0x3ff66666
    1168:	cccccccd 	.word	0xcccccccd
    116c:	3ff4cccc 	.word	0x3ff4cccc
    1170:	00000000 	.word	0x00000000
    1174:	3ff80000 	.word	0x3ff80000
    1178:	9999999a 	.word	0x9999999a
    117c:	3ff99999 	.word	0x3ff99999
    1180:	9999999a 	.word	0x9999999a
    1184:	3ff19999 	.word	0x3ff19999
    1188:	33333333 	.word	0x33333333
    118c:	3ff33333 	.word	0x3ff33333
    1190:	cccccccd 	.word	0xcccccccd
    1194:	4000cccc 	.word	0x4000cccc
    1198:	9999999a 	.word	0x9999999a
    119c:	40019999 	.word	0x40019999
    11a0:	66666666 	.word	0x66666666
    11a4:	3ff66666 	.word	0x3ff66666
    11a8:	cccccccd 	.word	0xcccccccd
    11ac:	3ff4cccc 	.word	0x3ff4cccc
    11b0:	00000000 	.word	0x00000000
    11b4:	3ff80000 	.word	0x3ff80000
    11b8:	9999999a 	.word	0x9999999a
    11bc:	3ff99999 	.word	0x3ff99999
    11c0:	9999999a 	.word	0x9999999a
    11c4:	3ff19999 	.word	0x3ff19999
    11c8:	33333333 	.word	0x33333333
    11cc:	3ff33333 	.word	0x3ff33333
    11d0:	cccccccd 	.word	0xcccccccd
    11d4:	4000cccc 	.word	0x4000cccc
    11d8:	9999999a 	.word	0x9999999a
    11dc:	40019999 	.word	0x40019999
    11e0:	66666666 	.word	0x66666666
    11e4:	3ff66666 	.word	0x3ff66666
    11e8:	cccccccd 	.word	0xcccccccd
    11ec:	3ff4cccc 	.word	0x3ff4cccc
    11f0:	00000000 	.word	0x00000000
    11f4:	3ff80000 	.word	0x3ff80000
    11f8:	9999999a 	.word	0x9999999a
    11fc:	3ff99999 	.word	0x3ff99999
    1200:	9999999a 	.word	0x9999999a
    1204:	3ff19999 	.word	0x3ff19999
    1208:	33333333 	.word	0x33333333
    120c:	3ff33333 	.word	0x3ff33333
    1210:	cccccccd 	.word	0xcccccccd
    1214:	4000cccc 	.word	0x4000cccc
    1218:	9999999a 	.word	0x9999999a
    121c:	40019999 	.word	0x40019999
    1220:	66666666 	.word	0x66666666
    1224:	3ff66666 	.word	0x3ff66666
    1228:	cccccccd 	.word	0xcccccccd
    122c:	3ff4cccc 	.word	0x3ff4cccc
    1230:	00000000 	.word	0x00000000
    1234:	3ff80000 	.word	0x3ff80000
    1238:	9999999a 	.word	0x9999999a
    123c:	3ff99999 	.word	0x3ff99999
    1240:	9999999a 	.word	0x9999999a
    1244:	3ff19999 	.word	0x3ff19999
    1248:	33333333 	.word	0x33333333
    124c:	3ff33333 	.word	0x3ff33333
    1250:	cccccccd 	.word	0xcccccccd
    1254:	4000cccc 	.word	0x4000cccc
    1258:	9999999a 	.word	0x9999999a
    125c:	40019999 	.word	0x40019999
    1260:	66666666 	.word	0x66666666
    1264:	3ff66666 	.word	0x3ff66666
    1268:	cccccccd 	.word	0xcccccccd
    126c:	3ff4cccc 	.word	0x3ff4cccc
    1270:	00000000 	.word	0x00000000
    1274:	3ff80000 	.word	0x3ff80000
    1278:	9999999a 	.word	0x9999999a
    127c:	3ff99999 	.word	0x3ff99999
    1280:	9999999a 	.word	0x9999999a
    1284:	3ff19999 	.word	0x3ff19999
    1288:	33333333 	.word	0x33333333
    128c:	3ff33333 	.word	0x3ff33333
    1290:	cccccccd 	.word	0xcccccccd
    1294:	4000cccc 	.word	0x4000cccc
    1298:	9999999a 	.word	0x9999999a
    129c:	40019999 	.word	0x40019999
    12a0:	66666666 	.word	0x66666666
    12a4:	3ff66666 	.word	0x3ff66666
    12a8:	cccccccd 	.word	0xcccccccd
    12ac:	3ff4cccc 	.word	0x3ff4cccc
    12b0:	00000000 	.word	0x00000000
    12b4:	3ff80000 	.word	0x3ff80000
    12b8:	9999999a 	.word	0x9999999a
    12bc:	3ff99999 	.word	0x3ff99999
    12c0:	9999999a 	.word	0x9999999a
    12c4:	3ff19999 	.word	0x3ff19999
    12c8:	33333333 	.word	0x33333333
    12cc:	3ff33333 	.word	0x3ff33333
    12d0:	cccccccd 	.word	0xcccccccd
    12d4:	4000cccc 	.word	0x4000cccc
    12d8:	9999999a 	.word	0x9999999a
    12dc:	40019999 	.word	0x40019999
    12e0:	66666666 	.word	0x66666666
    12e4:	3ff66666 	.word	0x3ff66666
    12e8:	cccccccd 	.word	0xcccccccd
    12ec:	3ff4cccc 	.word	0x3ff4cccc
    12f0:	00000000 	.word	0x00000000
    12f4:	3ff80000 	.word	0x3ff80000
    12f8:	9999999a 	.word	0x9999999a
    12fc:	3ff99999 	.word	0x3ff99999
    1300:	9999999a 	.word	0x9999999a
    1304:	3ff19999 	.word	0x3ff19999
    1308:	33333333 	.word	0x33333333
    130c:	3ff33333 	.word	0x3ff33333
    1310:	cccccccd 	.word	0xcccccccd
    1314:	4000cccc 	.word	0x4000cccc
    1318:	9999999a 	.word	0x9999999a
    131c:	40019999 	.word	0x40019999
    1320:	66666666 	.word	0x66666666
    1324:	3ff66666 	.word	0x3ff66666
    1328:	cccccccd 	.word	0xcccccccd
    132c:	3ff4cccc 	.word	0x3ff4cccc
    1330:	00000000 	.word	0x00000000
    1334:	3ff80000 	.word	0x3ff80000
    1338:	9999999a 	.word	0x9999999a
    133c:	3ff99999 	.word	0x3ff99999
    1340:	9999999a 	.word	0x9999999a
    1344:	3ff19999 	.word	0x3ff19999
    1348:	33333333 	.word	0x33333333
    134c:	3ff33333 	.word	0x3ff33333
    1350:	cccccccd 	.word	0xcccccccd
    1354:	4000cccc 	.word	0x4000cccc
    1358:	9999999a 	.word	0x9999999a
    135c:	40019999 	.word	0x40019999
    1360:	66666666 	.word	0x66666666
    1364:	3ff66666 	.word	0x3ff66666
    1368:	cccccccd 	.word	0xcccccccd
    136c:	3ff4cccc 	.word	0x3ff4cccc
    1370:	00000000 	.word	0x00000000
    1374:	3ff80000 	.word	0x3ff80000
    1378:	9999999a 	.word	0x9999999a
    137c:	3ff99999 	.word	0x3ff99999
    1380:	9999999a 	.word	0x9999999a
    1384:	3ff19999 	.word	0x3ff19999
    1388:	33333333 	.word	0x33333333
    138c:	3ff33333 	.word	0x3ff33333
    1390:	cccccccd 	.word	0xcccccccd
    1394:	4000cccc 	.word	0x4000cccc
    1398:	9999999a 	.word	0x9999999a
    139c:	40019999 	.word	0x40019999
    13a0:	66666666 	.word	0x66666666
    13a4:	3ff66666 	.word	0x3ff66666
    13a8:	cccccccd 	.word	0xcccccccd
    13ac:	3ff4cccc 	.word	0x3ff4cccc
    13b0:	00000000 	.word	0x00000000
    13b4:	3ff80000 	.word	0x3ff80000
    13b8:	9999999a 	.word	0x9999999a
    13bc:	3ff99999 	.word	0x3ff99999
    13c0:	9999999a 	.word	0x9999999a
    13c4:	3ff19999 	.word	0x3ff19999
    13c8:	33333333 	.word	0x33333333
    13cc:	3ff33333 	.word	0x3ff33333
    13d0:	cccccccd 	.word	0xcccccccd
    13d4:	4000cccc 	.word	0x4000cccc
    13d8:	9999999a 	.word	0x9999999a
    13dc:	40019999 	.word	0x40019999
    13e0:	66666666 	.word	0x66666666
    13e4:	3ff66666 	.word	0x3ff66666
    13e8:	cccccccd 	.word	0xcccccccd
    13ec:	3ff4cccc 	.word	0x3ff4cccc
    13f0:	00000000 	.word	0x00000000
    13f4:	3ff80000 	.word	0x3ff80000
    13f8:	9999999a 	.word	0x9999999a
    13fc:	3ff99999 	.word	0x3ff99999
    1400:	9999999a 	.word	0x9999999a
    1404:	3ff19999 	.word	0x3ff19999
    1408:	33333333 	.word	0x33333333
    140c:	3ff33333 	.word	0x3ff33333
    1410:	cccccccd 	.word	0xcccccccd
    1414:	4000cccc 	.word	0x4000cccc
    1418:	9999999a 	.word	0x9999999a
    141c:	40019999 	.word	0x40019999
    1420:	66666666 	.word	0x66666666
    1424:	3ff66666 	.word	0x3ff66666
    1428:	cccccccd 	.word	0xcccccccd
    142c:	3ff4cccc 	.word	0x3ff4cccc
    1430:	00000000 	.word	0x00000000
    1434:	3ff80000 	.word	0x3ff80000
    1438:	9999999a 	.word	0x9999999a
    143c:	3ff99999 	.word	0x3ff99999
    1440:	9999999a 	.word	0x9999999a
    1444:	3ff19999 	.word	0x3ff19999
    1448:	33333333 	.word	0x33333333
    144c:	3ff33333 	.word	0x3ff33333
    1450:	cccccccd 	.word	0xcccccccd
    1454:	4000cccc 	.word	0x4000cccc
    1458:	9999999a 	.word	0x9999999a
    145c:	40019999 	.word	0x40019999
    1460:	66666666 	.word	0x66666666
    1464:	3ff66666 	.word	0x3ff66666
    1468:	cccccccd 	.word	0xcccccccd
    146c:	3ff4cccc 	.word	0x3ff4cccc
    1470:	00000000 	.word	0x00000000
    1474:	3ff80000 	.word	0x3ff80000
    1478:	9999999a 	.word	0x9999999a
    147c:	3ff99999 	.word	0x3ff99999
    1480:	9999999a 	.word	0x9999999a
    1484:	3ff19999 	.word	0x3ff19999
    1488:	33333333 	.word	0x33333333
    148c:	3ff33333 	.word	0x3ff33333
    1490:	cccccccd 	.word	0xcccccccd
    1494:	4000cccc 	.word	0x4000cccc
    1498:	9999999a 	.word	0x9999999a
    149c:	40019999 	.word	0x40019999
    14a0:	66666666 	.word	0x66666666
    14a4:	3ff66666 	.word	0x3ff66666
    14a8:	cccccccd 	.word	0xcccccccd
    14ac:	3ff4cccc 	.word	0x3ff4cccc
    14b0:	00000000 	.word	0x00000000
    14b4:	3ff80000 	.word	0x3ff80000
    14b8:	9999999a 	.word	0x9999999a
    14bc:	3ff99999 	.word	0x3ff99999
    14c0:	9999999a 	.word	0x9999999a
    14c4:	3ff19999 	.word	0x3ff19999
    14c8:	33333333 	.word	0x33333333
    14cc:	3ff33333 	.word	0x3ff33333
    14d0:	cccccccd 	.word	0xcccccccd
    14d4:	4000cccc 	.word	0x4000cccc
    14d8:	9999999a 	.word	0x9999999a
    14dc:	40019999 	.word	0x40019999
    14e0:	66666666 	.word	0x66666666
    14e4:	3ff66666 	.word	0x3ff66666
    14e8:	cccccccd 	.word	0xcccccccd
    14ec:	3ff4cccc 	.word	0x3ff4cccc
    14f0:	00000000 	.word	0x00000000
    14f4:	3ff80000 	.word	0x3ff80000
    14f8:	9999999a 	.word	0x9999999a
    14fc:	3ff99999 	.word	0x3ff99999
    1500:	9999999a 	.word	0x9999999a
    1504:	3ff19999 	.word	0x3ff19999
    1508:	33333333 	.word	0x33333333
    150c:	3ff33333 	.word	0x3ff33333
    1510:	cccccccd 	.word	0xcccccccd
    1514:	4000cccc 	.word	0x4000cccc
    1518:	9999999a 	.word	0x9999999a
    151c:	40019999 	.word	0x40019999
    1520:	66666666 	.word	0x66666666
    1524:	3ff66666 	.word	0x3ff66666
    1528:	cccccccd 	.word	0xcccccccd
    152c:	3ff4cccc 	.word	0x3ff4cccc
    1530:	00000000 	.word	0x00000000
    1534:	3ff80000 	.word	0x3ff80000
    1538:	9999999a 	.word	0x9999999a
    153c:	3ff99999 	.word	0x3ff99999
    1540:	9999999a 	.word	0x9999999a
    1544:	3ff19999 	.word	0x3ff19999
    1548:	33333333 	.word	0x33333333
    154c:	3ff33333 	.word	0x3ff33333
    1550:	cccccccd 	.word	0xcccccccd
    1554:	4000cccc 	.word	0x4000cccc
    1558:	9999999a 	.word	0x9999999a
    155c:	40019999 	.word	0x40019999
    1560:	66666666 	.word	0x66666666
    1564:	3ff66666 	.word	0x3ff66666
    1568:	cccccccd 	.word	0xcccccccd
    156c:	3ff4cccc 	.word	0x3ff4cccc
    1570:	00000000 	.word	0x00000000
    1574:	3ff80000 	.word	0x3ff80000
    1578:	9999999a 	.word	0x9999999a
    157c:	3ff99999 	.word	0x3ff99999
    1580:	9999999a 	.word	0x9999999a
    1584:	3ff19999 	.word	0x3ff19999
    1588:	33333333 	.word	0x33333333
    158c:	3ff33333 	.word	0x3ff33333
    1590:	cccccccd 	.word	0xcccccccd
    1594:	4000cccc 	.word	0x4000cccc
    1598:	9999999a 	.word	0x9999999a
    159c:	40019999 	.word	0x40019999
    15a0:	66666666 	.word	0x66666666
    15a4:	3ff66666 	.word	0x3ff66666
    15a8:	cccccccd 	.word	0xcccccccd
    15ac:	3ff4cccc 	.word	0x3ff4cccc
    15b0:	00000000 	.word	0x00000000
    15b4:	3ff80000 	.word	0x3ff80000
    15b8:	9999999a 	.word	0x9999999a
    15bc:	3ff99999 	.word	0x3ff99999
    15c0:	9999999a 	.word	0x9999999a
    15c4:	3ff19999 	.word	0x3ff19999
    15c8:	33333333 	.word	0x33333333
    15cc:	3ff33333 	.word	0x3ff33333
    15d0:	cccccccd 	.word	0xcccccccd
    15d4:	4000cccc 	.word	0x4000cccc
    15d8:	9999999a 	.word	0x9999999a
    15dc:	40019999 	.word	0x40019999
    15e0:	66666666 	.word	0x66666666
    15e4:	3ff66666 	.word	0x3ff66666
    15e8:	cccccccd 	.word	0xcccccccd
    15ec:	3ff4cccc 	.word	0x3ff4cccc
    15f0:	00000000 	.word	0x00000000
    15f4:	3ff80000 	.word	0x3ff80000
    15f8:	9999999a 	.word	0x9999999a
    15fc:	3ff99999 	.word	0x3ff99999
    1600:	9999999a 	.word	0x9999999a
    1604:	3ff19999 	.word	0x3ff19999
    1608:	33333333 	.word	0x33333333
    160c:	3ff33333 	.word	0x3ff33333
    1610:	cccccccd 	.word	0xcccccccd
    1614:	4000cccc 	.word	0x4000cccc
    1618:	9999999a 	.word	0x9999999a
    161c:	40019999 	.word	0x40019999
    1620:	66666666 	.word	0x66666666
    1624:	3ff66666 	.word	0x3ff66666
    1628:	cccccccd 	.word	0xcccccccd
    162c:	3ff4cccc 	.word	0x3ff4cccc
    1630:	00000000 	.word	0x00000000
    1634:	3ff80000 	.word	0x3ff80000
    1638:	9999999a 	.word	0x9999999a
    163c:	3ff99999 	.word	0x3ff99999
    1640:	9999999a 	.word	0x9999999a
    1644:	3ff19999 	.word	0x3ff19999
    1648:	33333333 	.word	0x33333333
    164c:	3ff33333 	.word	0x3ff33333
    1650:	cccccccd 	.word	0xcccccccd
    1654:	4000cccc 	.word	0x4000cccc
    1658:	9999999a 	.word	0x9999999a
    165c:	40019999 	.word	0x40019999
    1660:	66666666 	.word	0x66666666
    1664:	3ff66666 	.word	0x3ff66666
    1668:	cccccccd 	.word	0xcccccccd
    166c:	3ff4cccc 	.word	0x3ff4cccc
    1670:	00000000 	.word	0x00000000
    1674:	3ff80000 	.word	0x3ff80000
    1678:	9999999a 	.word	0x9999999a
    167c:	3ff99999 	.word	0x3ff99999
    1680:	9999999a 	.word	0x9999999a
    1684:	3ff19999 	.word	0x3ff19999
    1688:	33333333 	.word	0x33333333
    168c:	3ff33333 	.word	0x3ff33333
    1690:	cccccccd 	.word	0xcccccccd
    1694:	4000cccc 	.word	0x4000cccc
    1698:	9999999a 	.word	0x9999999a
    169c:	40019999 	.word	0x40019999
    16a0:	66666666 	.word	0x66666666
    16a4:	3ff66666 	.word	0x3ff66666
    16a8:	cccccccd 	.word	0xcccccccd
    16ac:	3ff4cccc 	.word	0x3ff4cccc
    16b0:	00000000 	.word	0x00000000
    16b4:	3ff80000 	.word	0x3ff80000
    16b8:	9999999a 	.word	0x9999999a
    16bc:	3ff99999 	.word	0x3ff99999
    16c0:	9999999a 	.word	0x9999999a
    16c4:	3ff19999 	.word	0x3ff19999
    16c8:	33333333 	.word	0x33333333
    16cc:	3ff33333 	.word	0x3ff33333
    16d0:	cccccccd 	.word	0xcccccccd
    16d4:	4000cccc 	.word	0x4000cccc
    16d8:	9999999a 	.word	0x9999999a
    16dc:	40019999 	.word	0x40019999
    16e0:	66666666 	.word	0x66666666
    16e4:	3ff66666 	.word	0x3ff66666
    16e8:	cccccccd 	.word	0xcccccccd
    16ec:	3ff4cccc 	.word	0x3ff4cccc
    16f0:	00000000 	.word	0x00000000
    16f4:	3ff80000 	.word	0x3ff80000
    16f8:	9999999a 	.word	0x9999999a
    16fc:	3ff99999 	.word	0x3ff99999
    1700:	9999999a 	.word	0x9999999a
    1704:	3ff19999 	.word	0x3ff19999
    1708:	33333333 	.word	0x33333333
    170c:	3ff33333 	.word	0x3ff33333
    1710:	cccccccd 	.word	0xcccccccd
    1714:	4000cccc 	.word	0x4000cccc
    1718:	9999999a 	.word	0x9999999a
    171c:	40019999 	.word	0x40019999
    1720:	66666666 	.word	0x66666666
    1724:	3ff66666 	.word	0x3ff66666
    1728:	cccccccd 	.word	0xcccccccd
    172c:	3ff4cccc 	.word	0x3ff4cccc
    1730:	00000000 	.word	0x00000000
    1734:	3ff80000 	.word	0x3ff80000
    1738:	9999999a 	.word	0x9999999a
    173c:	3ff99999 	.word	0x3ff99999
    1740:	9999999a 	.word	0x9999999a
    1744:	3ff19999 	.word	0x3ff19999
    1748:	33333333 	.word	0x33333333
    174c:	3ff33333 	.word	0x3ff33333
    1750:	cccccccd 	.word	0xcccccccd
    1754:	4000cccc 	.word	0x4000cccc
    1758:	9999999a 	.word	0x9999999a
    175c:	40019999 	.word	0x40019999
    1760:	66666666 	.word	0x66666666
    1764:	3ff66666 	.word	0x3ff66666
    1768:	cccccccd 	.word	0xcccccccd
    176c:	3ff4cccc 	.word	0x3ff4cccc
    1770:	00000000 	.word	0x00000000
    1774:	3ff80000 	.word	0x3ff80000
    1778:	9999999a 	.word	0x9999999a
    177c:	3ff99999 	.word	0x3ff99999
    1780:	9999999a 	.word	0x9999999a
    1784:	3ff19999 	.word	0x3ff19999
    1788:	33333333 	.word	0x33333333
    178c:	3ff33333 	.word	0x3ff33333
    1790:	cccccccd 	.word	0xcccccccd
    1794:	4000cccc 	.word	0x4000cccc
    1798:	9999999a 	.word	0x9999999a
    179c:	40019999 	.word	0x40019999
    17a0:	66666666 	.word	0x66666666
    17a4:	3ff66666 	.word	0x3ff66666
    17a8:	cccccccd 	.word	0xcccccccd
    17ac:	3ff4cccc 	.word	0x3ff4cccc
    17b0:	00000000 	.word	0x00000000
    17b4:	3ff80000 	.word	0x3ff80000
    17b8:	9999999a 	.word	0x9999999a
    17bc:	3ff99999 	.word	0x3ff99999
    17c0:	9999999a 	.word	0x9999999a
    17c4:	3ff19999 	.word	0x3ff19999
    17c8:	33333333 	.word	0x33333333
    17cc:	3ff33333 	.word	0x3ff33333
    17d0:	cccccccd 	.word	0xcccccccd
    17d4:	4000cccc 	.word	0x4000cccc
    17d8:	9999999a 	.word	0x9999999a
    17dc:	40019999 	.word	0x40019999
    17e0:	66666666 	.word	0x66666666
    17e4:	3ff66666 	.word	0x3ff66666
    17e8:	cccccccd 	.word	0xcccccccd
    17ec:	3ff4cccc 	.word	0x3ff4cccc
    17f0:	00000000 	.word	0x00000000
    17f4:	3ff80000 	.word	0x3ff80000
    17f8:	9999999a 	.word	0x9999999a
    17fc:	3ff99999 	.word	0x3ff99999
    1800:	9999999a 	.word	0x9999999a
    1804:	3ff19999 	.word	0x3ff19999
    1808:	33333333 	.word	0x33333333
    180c:	3ff33333 	.word	0x3ff33333
    1810:	cccccccd 	.word	0xcccccccd
    1814:	4000cccc 	.word	0x4000cccc
    1818:	9999999a 	.word	0x9999999a
    181c:	40019999 	.word	0x40019999
    1820:	66666666 	.word	0x66666666
    1824:	3ff66666 	.word	0x3ff66666
    1828:	cccccccd 	.word	0xcccccccd
    182c:	3ff4cccc 	.word	0x3ff4cccc
    1830:	00000000 	.word	0x00000000
    1834:	3ff80000 	.word	0x3ff80000
    1838:	9999999a 	.word	0x9999999a
    183c:	3ff99999 	.word	0x3ff99999
    1840:	9999999a 	.word	0x9999999a
    1844:	3ff19999 	.word	0x3ff19999
    1848:	33333333 	.word	0x33333333
    184c:	3ff33333 	.word	0x3ff33333
    1850:	cccccccd 	.word	0xcccccccd
    1854:	4000cccc 	.word	0x4000cccc
    1858:	9999999a 	.word	0x9999999a
    185c:	40019999 	.word	0x40019999
    1860:	66666666 	.word	0x66666666
    1864:	3ff66666 	.word	0x3ff66666
    1868:	cccccccd 	.word	0xcccccccd
    186c:	3ff4cccc 	.word	0x3ff4cccc
    1870:	00000000 	.word	0x00000000
    1874:	3ff80000 	.word	0x3ff80000
    1878:	9999999a 	.word	0x9999999a
    187c:	3ff99999 	.word	0x3ff99999
    1880:	9999999a 	.word	0x9999999a
    1884:	3ff19999 	.word	0x3ff19999
    1888:	33333333 	.word	0x33333333
    188c:	3ff33333 	.word	0x3ff33333
    1890:	cccccccd 	.word	0xcccccccd
    1894:	4000cccc 	.word	0x4000cccc
    1898:	9999999a 	.word	0x9999999a
    189c:	40019999 	.word	0x40019999
    18a0:	66666666 	.word	0x66666666
    18a4:	3ff66666 	.word	0x3ff66666
    18a8:	cccccccd 	.word	0xcccccccd
    18ac:	3ff4cccc 	.word	0x3ff4cccc
    18b0:	00000000 	.word	0x00000000
    18b4:	3ff80000 	.word	0x3ff80000
    18b8:	9999999a 	.word	0x9999999a
    18bc:	3ff99999 	.word	0x3ff99999
    18c0:	9999999a 	.word	0x9999999a
    18c4:	3ff19999 	.word	0x3ff19999
    18c8:	33333333 	.word	0x33333333
    18cc:	3ff33333 	.word	0x3ff33333
    18d0:	cccccccd 	.word	0xcccccccd
    18d4:	4000cccc 	.word	0x4000cccc
    18d8:	9999999a 	.word	0x9999999a
    18dc:	40019999 	.word	0x40019999
    18e0:	66666666 	.word	0x66666666
    18e4:	3ff66666 	.word	0x3ff66666
    18e8:	cccccccd 	.word	0xcccccccd
    18ec:	3ff4cccc 	.word	0x3ff4cccc
    18f0:	00000000 	.word	0x00000000
    18f4:	3ff80000 	.word	0x3ff80000
    18f8:	9999999a 	.word	0x9999999a
    18fc:	3ff99999 	.word	0x3ff99999
    1900:	9999999a 	.word	0x9999999a
    1904:	3ff19999 	.word	0x3ff19999
    1908:	33333333 	.word	0x33333333
    190c:	3ff33333 	.word	0x3ff33333
    1910:	cccccccd 	.word	0xcccccccd
    1914:	4000cccc 	.word	0x4000cccc
    1918:	9999999a 	.word	0x9999999a
    191c:	40019999 	.word	0x40019999
    1920:	66666666 	.word	0x66666666
    1924:	3ff66666 	.word	0x3ff66666
    1928:	cccccccd 	.word	0xcccccccd
    192c:	3ff4cccc 	.word	0x3ff4cccc
    1930:	00000000 	.word	0x00000000
    1934:	3ff80000 	.word	0x3ff80000
    1938:	9999999a 	.word	0x9999999a
    193c:	3ff99999 	.word	0x3ff99999
    1940:	9999999a 	.word	0x9999999a
    1944:	3ff19999 	.word	0x3ff19999
    1948:	33333333 	.word	0x33333333
    194c:	3ff33333 	.word	0x3ff33333
    1950:	cccccccd 	.word	0xcccccccd
    1954:	4000cccc 	.word	0x4000cccc
    1958:	9999999a 	.word	0x9999999a
    195c:	40019999 	.word	0x40019999
    1960:	66666666 	.word	0x66666666
    1964:	3ff66666 	.word	0x3ff66666
    1968:	cccccccd 	.word	0xcccccccd
    196c:	3ff4cccc 	.word	0x3ff4cccc
    1970:	00000000 	.word	0x00000000
    1974:	3ff80000 	.word	0x3ff80000
    1978:	9999999a 	.word	0x9999999a
    197c:	3ff99999 	.word	0x3ff99999
    1980:	9999999a 	.word	0x9999999a
    1984:	3ff19999 	.word	0x3ff19999
    1988:	33333333 	.word	0x33333333
    198c:	3ff33333 	.word	0x3ff33333
    1990:	cccccccd 	.word	0xcccccccd
    1994:	4000cccc 	.word	0x4000cccc
    1998:	9999999a 	.word	0x9999999a
    199c:	40019999 	.word	0x40019999
    19a0:	66666666 	.word	0x66666666
    19a4:	3ff66666 	.word	0x3ff66666
    19a8:	cccccccd 	.word	0xcccccccd
    19ac:	3ff4cccc 	.word	0x3ff4cccc
    19b0:	00000000 	.word	0x00000000
    19b4:	3ff80000 	.word	0x3ff80000
    19b8:	9999999a 	.word	0x9999999a
    19bc:	3ff99999 	.word	0x3ff99999
    19c0:	9999999a 	.word	0x9999999a
    19c4:	3ff19999 	.word	0x3ff19999
    19c8:	33333333 	.word	0x33333333
    19cc:	3ff33333 	.word	0x3ff33333
    19d0:	cccccccd 	.word	0xcccccccd
    19d4:	4000cccc 	.word	0x4000cccc
    19d8:	9999999a 	.word	0x9999999a
    19dc:	40019999 	.word	0x40019999
    19e0:	66666666 	.word	0x66666666
    19e4:	3ff66666 	.word	0x3ff66666
    19e8:	cccccccd 	.word	0xcccccccd
    19ec:	3ff4cccc 	.word	0x3ff4cccc
    19f0:	00000000 	.word	0x00000000
    19f4:	3ff80000 	.word	0x3ff80000
    19f8:	9999999a 	.word	0x9999999a
    19fc:	3ff99999 	.word	0x3ff99999
    1a00:	9999999a 	.word	0x9999999a
    1a04:	3ff19999 	.word	0x3ff19999
    1a08:	33333333 	.word	0x33333333
    1a0c:	3ff33333 	.word	0x3ff33333
    1a10:	cccccccd 	.word	0xcccccccd
    1a14:	4000cccc 	.word	0x4000cccc
    1a18:	9999999a 	.word	0x9999999a
    1a1c:	40019999 	.word	0x40019999
    1a20:	66666666 	.word	0x66666666
    1a24:	3ff66666 	.word	0x3ff66666
    1a28:	cccccccd 	.word	0xcccccccd
    1a2c:	3ff4cccc 	.word	0x3ff4cccc
    1a30:	00000000 	.word	0x00000000
    1a34:	3ff80000 	.word	0x3ff80000
    1a38:	9999999a 	.word	0x9999999a
    1a3c:	3ff99999 	.word	0x3ff99999
    1a40:	9999999a 	.word	0x9999999a
    1a44:	3ff19999 	.word	0x3ff19999
    1a48:	33333333 	.word	0x33333333
    1a4c:	3ff33333 	.word	0x3ff33333
    1a50:	cccccccd 	.word	0xcccccccd
    1a54:	4000cccc 	.word	0x4000cccc
    1a58:	9999999a 	.word	0x9999999a
    1a5c:	40019999 	.word	0x40019999
    1a60:	66666666 	.word	0x66666666
    1a64:	3ff66666 	.word	0x3ff66666
    1a68:	cccccccd 	.word	0xcccccccd
    1a6c:	3ff4cccc 	.word	0x3ff4cccc
    1a70:	00000000 	.word	0x00000000
    1a74:	3ff80000 	.word	0x3ff80000
    1a78:	9999999a 	.word	0x9999999a
    1a7c:	3ff99999 	.word	0x3ff99999
    1a80:	9999999a 	.word	0x9999999a
    1a84:	3ff19999 	.word	0x3ff19999
    1a88:	33333333 	.word	0x33333333
    1a8c:	3ff33333 	.word	0x3ff33333
    1a90:	cccccccd 	.word	0xcccccccd
    1a94:	4000cccc 	.word	0x4000cccc
    1a98:	9999999a 	.word	0x9999999a
    1a9c:	40019999 	.word	0x40019999
    1aa0:	66666666 	.word	0x66666666
    1aa4:	3ff66666 	.word	0x3ff66666
    1aa8:	cccccccd 	.word	0xcccccccd
    1aac:	3ff4cccc 	.word	0x3ff4cccc
    1ab0:	00000000 	.word	0x00000000
    1ab4:	3ff80000 	.word	0x3ff80000
    1ab8:	9999999a 	.word	0x9999999a
    1abc:	3ff99999 	.word	0x3ff99999
    1ac0:	9999999a 	.word	0x9999999a
    1ac4:	3ff19999 	.word	0x3ff19999
    1ac8:	33333333 	.word	0x33333333
    1acc:	3ff33333 	.word	0x3ff33333
    1ad0:	cccccccd 	.word	0xcccccccd
    1ad4:	4000cccc 	.word	0x4000cccc
    1ad8:	9999999a 	.word	0x9999999a
    1adc:	40019999 	.word	0x40019999
    1ae0:	66666666 	.word	0x66666666
    1ae4:	3ff66666 	.word	0x3ff66666
    1ae8:	cccccccd 	.word	0xcccccccd
    1aec:	3ff4cccc 	.word	0x3ff4cccc
    1af0:	00000000 	.word	0x00000000
    1af4:	3ff80000 	.word	0x3ff80000
    1af8:	9999999a 	.word	0x9999999a
    1afc:	3ff99999 	.word	0x3ff99999
    1b00:	9999999a 	.word	0x9999999a
    1b04:	3ff19999 	.word	0x3ff19999
    1b08:	33333333 	.word	0x33333333
    1b0c:	3ff33333 	.word	0x3ff33333
    1b10:	cccccccd 	.word	0xcccccccd
    1b14:	4000cccc 	.word	0x4000cccc
    1b18:	9999999a 	.word	0x9999999a
    1b1c:	40019999 	.word	0x40019999
    1b20:	66666666 	.word	0x66666666
    1b24:	3ff66666 	.word	0x3ff66666
    1b28:	cccccccd 	.word	0xcccccccd
    1b2c:	3ff4cccc 	.word	0x3ff4cccc
    1b30:	00000000 	.word	0x00000000
    1b34:	3ff80000 	.word	0x3ff80000
    1b38:	9999999a 	.word	0x9999999a
    1b3c:	3ff99999 	.word	0x3ff99999
    1b40:	9999999a 	.word	0x9999999a
    1b44:	3ff19999 	.word	0x3ff19999
    1b48:	33333333 	.word	0x33333333
    1b4c:	3ff33333 	.word	0x3ff33333
    1b50:	cccccccd 	.word	0xcccccccd
    1b54:	4000cccc 	.word	0x4000cccc
    1b58:	9999999a 	.word	0x9999999a
    1b5c:	40019999 	.word	0x40019999
    1b60:	66666666 	.word	0x66666666
    1b64:	3ff66666 	.word	0x3ff66666
    1b68:	cccccccd 	.word	0xcccccccd
    1b6c:	3ff4cccc 	.word	0x3ff4cccc
    1b70:	00000000 	.word	0x00000000
    1b74:	3ff80000 	.word	0x3ff80000
    1b78:	9999999a 	.word	0x9999999a
    1b7c:	3ff99999 	.word	0x3ff99999
    1b80:	9999999a 	.word	0x9999999a
    1b84:	3ff19999 	.word	0x3ff19999
    1b88:	33333333 	.word	0x33333333
    1b8c:	3ff33333 	.word	0x3ff33333
    1b90:	cccccccd 	.word	0xcccccccd
    1b94:	4000cccc 	.word	0x4000cccc
    1b98:	9999999a 	.word	0x9999999a
    1b9c:	40019999 	.word	0x40019999
    1ba0:	66666666 	.word	0x66666666
    1ba4:	3ff66666 	.word	0x3ff66666
    1ba8:	cccccccd 	.word	0xcccccccd
    1bac:	3ff4cccc 	.word	0x3ff4cccc
    1bb0:	00000000 	.word	0x00000000
    1bb4:	3ff80000 	.word	0x3ff80000
    1bb8:	9999999a 	.word	0x9999999a
    1bbc:	3ff99999 	.word	0x3ff99999
    1bc0:	9999999a 	.word	0x9999999a
    1bc4:	3ff19999 	.word	0x3ff19999
    1bc8:	33333333 	.word	0x33333333
    1bcc:	3ff33333 	.word	0x3ff33333
    1bd0:	cccccccd 	.word	0xcccccccd
    1bd4:	4000cccc 	.word	0x4000cccc
    1bd8:	9999999a 	.word	0x9999999a
    1bdc:	40019999 	.word	0x40019999
    1be0:	66666666 	.word	0x66666666
    1be4:	3ff66666 	.word	0x3ff66666
    1be8:	cccccccd 	.word	0xcccccccd
    1bec:	3ff4cccc 	.word	0x3ff4cccc
    1bf0:	00000000 	.word	0x00000000
    1bf4:	3ff80000 	.word	0x3ff80000
    1bf8:	9999999a 	.word	0x9999999a
    1bfc:	3ff99999 	.word	0x3ff99999
    1c00:	9999999a 	.word	0x9999999a
    1c04:	3ff19999 	.word	0x3ff19999
    1c08:	33333333 	.word	0x33333333
    1c0c:	3ff33333 	.word	0x3ff33333
    1c10:	cccccccd 	.word	0xcccccccd
    1c14:	4000cccc 	.word	0x4000cccc
    1c18:	9999999a 	.word	0x9999999a
    1c1c:	40019999 	.word	0x40019999
    1c20:	66666666 	.word	0x66666666
    1c24:	3ff66666 	.word	0x3ff66666
    1c28:	cccccccd 	.word	0xcccccccd
    1c2c:	3ff4cccc 	.word	0x3ff4cccc
    1c30:	00000000 	.word	0x00000000
    1c34:	3ff80000 	.word	0x3ff80000
    1c38:	9999999a 	.word	0x9999999a
    1c3c:	3ff99999 	.word	0x3ff99999
    1c40:	9999999a 	.word	0x9999999a
    1c44:	3ff19999 	.word	0x3ff19999
    1c48:	33333333 	.word	0x33333333
    1c4c:	3ff33333 	.word	0x3ff33333
    1c50:	cccccccd 	.word	0xcccccccd
    1c54:	4000cccc 	.word	0x4000cccc
    1c58:	9999999a 	.word	0x9999999a
    1c5c:	40019999 	.word	0x40019999
    1c60:	66666666 	.word	0x66666666
    1c64:	3ff66666 	.word	0x3ff66666
    1c68:	cccccccd 	.word	0xcccccccd
    1c6c:	3ff4cccc 	.word	0x3ff4cccc
    1c70:	00000000 	.word	0x00000000
    1c74:	3ff80000 	.word	0x3ff80000
    1c78:	9999999a 	.word	0x9999999a
    1c7c:	3ff99999 	.word	0x3ff99999
    1c80:	9999999a 	.word	0x9999999a
    1c84:	3ff19999 	.word	0x3ff19999
    1c88:	33333333 	.word	0x33333333
    1c8c:	3ff33333 	.word	0x3ff33333
    1c90:	cccccccd 	.word	0xcccccccd
    1c94:	4000cccc 	.word	0x4000cccc
    1c98:	9999999a 	.word	0x9999999a
    1c9c:	40019999 	.word	0x40019999
    1ca0:	66666666 	.word	0x66666666
    1ca4:	3ff66666 	.word	0x3ff66666
    1ca8:	cccccccd 	.word	0xcccccccd
    1cac:	3ff4cccc 	.word	0x3ff4cccc
    1cb0:	00000000 	.word	0x00000000
    1cb4:	3ff80000 	.word	0x3ff80000
    1cb8:	9999999a 	.word	0x9999999a
    1cbc:	3ff99999 	.word	0x3ff99999
    1cc0:	9999999a 	.word	0x9999999a
    1cc4:	3ff19999 	.word	0x3ff19999
    1cc8:	33333333 	.word	0x33333333
    1ccc:	3ff33333 	.word	0x3ff33333
    1cd0:	cccccccd 	.word	0xcccccccd
    1cd4:	4000cccc 	.word	0x4000cccc
    1cd8:	9999999a 	.word	0x9999999a
    1cdc:	40019999 	.word	0x40019999
    1ce0:	66666666 	.word	0x66666666
    1ce4:	3ff66666 	.word	0x3ff66666
    1ce8:	cccccccd 	.word	0xcccccccd
    1cec:	3ff4cccc 	.word	0x3ff4cccc
    1cf0:	00000000 	.word	0x00000000
    1cf4:	3ff80000 	.word	0x3ff80000
    1cf8:	9999999a 	.word	0x9999999a
    1cfc:	3ff99999 	.word	0x3ff99999
    1d00:	9999999a 	.word	0x9999999a
    1d04:	3ff19999 	.word	0x3ff19999
    1d08:	33333333 	.word	0x33333333
    1d0c:	3ff33333 	.word	0x3ff33333
    1d10:	cccccccd 	.word	0xcccccccd
    1d14:	4000cccc 	.word	0x4000cccc
    1d18:	9999999a 	.word	0x9999999a
    1d1c:	40019999 	.word	0x40019999
    1d20:	66666666 	.word	0x66666666
    1d24:	3ff66666 	.word	0x3ff66666
    1d28:	cccccccd 	.word	0xcccccccd
    1d2c:	3ff4cccc 	.word	0x3ff4cccc
    1d30:	00000000 	.word	0x00000000
    1d34:	3ff80000 	.word	0x3ff80000
    1d38:	9999999a 	.word	0x9999999a
    1d3c:	3ff99999 	.word	0x3ff99999
    1d40:	9999999a 	.word	0x9999999a
    1d44:	3ff19999 	.word	0x3ff19999
    1d48:	33333333 	.word	0x33333333
    1d4c:	3ff33333 	.word	0x3ff33333
    1d50:	cccccccd 	.word	0xcccccccd
    1d54:	4000cccc 	.word	0x4000cccc
    1d58:	9999999a 	.word	0x9999999a
    1d5c:	40019999 	.word	0x40019999
    1d60:	66666666 	.word	0x66666666
    1d64:	3ff66666 	.word	0x3ff66666
    1d68:	cccccccd 	.word	0xcccccccd
    1d6c:	3ff4cccc 	.word	0x3ff4cccc
    1d70:	00000000 	.word	0x00000000
    1d74:	3ff80000 	.word	0x3ff80000
    1d78:	9999999a 	.word	0x9999999a
    1d7c:	3ff99999 	.word	0x3ff99999
    1d80:	9999999a 	.word	0x9999999a
    1d84:	3ff19999 	.word	0x3ff19999
    1d88:	33333333 	.word	0x33333333
    1d8c:	3ff33333 	.word	0x3ff33333
    1d90:	cccccccd 	.word	0xcccccccd
    1d94:	4000cccc 	.word	0x4000cccc
    1d98:	9999999a 	.word	0x9999999a
    1d9c:	40019999 	.word	0x40019999
    1da0:	66666666 	.word	0x66666666
    1da4:	3ff66666 	.word	0x3ff66666
    1da8:	cccccccd 	.word	0xcccccccd
    1dac:	3ff4cccc 	.word	0x3ff4cccc
    1db0:	00000000 	.word	0x00000000
    1db4:	3ff80000 	.word	0x3ff80000
    1db8:	9999999a 	.word	0x9999999a
    1dbc:	3ff99999 	.word	0x3ff99999
    1dc0:	9999999a 	.word	0x9999999a
    1dc4:	3ff19999 	.word	0x3ff19999
    1dc8:	33333333 	.word	0x33333333
    1dcc:	3ff33333 	.word	0x3ff33333
    1dd0:	cccccccd 	.word	0xcccccccd
    1dd4:	4000cccc 	.word	0x4000cccc
    1dd8:	9999999a 	.word	0x9999999a
    1ddc:	40019999 	.word	0x40019999
    1de0:	66666666 	.word	0x66666666
    1de4:	3ff66666 	.word	0x3ff66666
    1de8:	cccccccd 	.word	0xcccccccd
    1dec:	3ff4cccc 	.word	0x3ff4cccc
    1df0:	00000000 	.word	0x00000000
    1df4:	3ff80000 	.word	0x3ff80000
    1df8:	9999999a 	.word	0x9999999a
    1dfc:	3ff99999 	.word	0x3ff99999
    1e00:	9999999a 	.word	0x9999999a
    1e04:	3ff19999 	.word	0x3ff19999
    1e08:	33333333 	.word	0x33333333
    1e0c:	3ff33333 	.word	0x3ff33333
    1e10:	cccccccd 	.word	0xcccccccd
    1e14:	4000cccc 	.word	0x4000cccc
    1e18:	9999999a 	.word	0x9999999a
    1e1c:	40019999 	.word	0x40019999
    1e20:	66666666 	.word	0x66666666
    1e24:	3ff66666 	.word	0x3ff66666
    1e28:	cccccccd 	.word	0xcccccccd
    1e2c:	3ff4cccc 	.word	0x3ff4cccc
    1e30:	00000000 	.word	0x00000000
    1e34:	3ff80000 	.word	0x3ff80000
    1e38:	9999999a 	.word	0x9999999a
    1e3c:	3ff99999 	.word	0x3ff99999
    1e40:	9999999a 	.word	0x9999999a
    1e44:	3ff19999 	.word	0x3ff19999
    1e48:	33333333 	.word	0x33333333
    1e4c:	3ff33333 	.word	0x3ff33333
    1e50:	cccccccd 	.word	0xcccccccd
    1e54:	4000cccc 	.word	0x4000cccc
    1e58:	9999999a 	.word	0x9999999a
    1e5c:	40019999 	.word	0x40019999
    1e60:	66666666 	.word	0x66666666
    1e64:	3ff66666 	.word	0x3ff66666
    1e68:	cccccccd 	.word	0xcccccccd
    1e6c:	3ff4cccc 	.word	0x3ff4cccc
    1e70:	00000000 	.word	0x00000000
    1e74:	3ff80000 	.word	0x3ff80000
    1e78:	9999999a 	.word	0x9999999a
    1e7c:	3ff99999 	.word	0x3ff99999
    1e80:	9999999a 	.word	0x9999999a
    1e84:	3ff19999 	.word	0x3ff19999
    1e88:	33333333 	.word	0x33333333
    1e8c:	3ff33333 	.word	0x3ff33333
    1e90:	cccccccd 	.word	0xcccccccd
    1e94:	4000cccc 	.word	0x4000cccc
    1e98:	9999999a 	.word	0x9999999a
    1e9c:	40019999 	.word	0x40019999
    1ea0:	66666666 	.word	0x66666666
    1ea4:	3ff66666 	.word	0x3ff66666
    1ea8:	cccccccd 	.word	0xcccccccd
    1eac:	3ff4cccc 	.word	0x3ff4cccc
    1eb0:	00000000 	.word	0x00000000
    1eb4:	3ff80000 	.word	0x3ff80000
    1eb8:	9999999a 	.word	0x9999999a
    1ebc:	3ff99999 	.word	0x3ff99999
    1ec0:	9999999a 	.word	0x9999999a
    1ec4:	3ff19999 	.word	0x3ff19999
    1ec8:	33333333 	.word	0x33333333
    1ecc:	3ff33333 	.word	0x3ff33333
    1ed0:	cccccccd 	.word	0xcccccccd
    1ed4:	4000cccc 	.word	0x4000cccc
    1ed8:	9999999a 	.word	0x9999999a
    1edc:	40019999 	.word	0x40019999
    1ee0:	66666666 	.word	0x66666666
    1ee4:	3ff66666 	.word	0x3ff66666
    1ee8:	cccccccd 	.word	0xcccccccd
    1eec:	3ff4cccc 	.word	0x3ff4cccc
    1ef0:	00000000 	.word	0x00000000
    1ef4:	3ff80000 	.word	0x3ff80000
    1ef8:	9999999a 	.word	0x9999999a
    1efc:	3ff99999 	.word	0x3ff99999
    1f00:	9999999a 	.word	0x9999999a
    1f04:	3ff19999 	.word	0x3ff19999
    1f08:	33333333 	.word	0x33333333
    1f0c:	3ff33333 	.word	0x3ff33333
    1f10:	cccccccd 	.word	0xcccccccd
    1f14:	4000cccc 	.word	0x4000cccc
    1f18:	9999999a 	.word	0x9999999a
    1f1c:	40019999 	.word	0x40019999
    1f20:	66666666 	.word	0x66666666
    1f24:	3ff66666 	.word	0x3ff66666
    1f28:	cccccccd 	.word	0xcccccccd
    1f2c:	3ff4cccc 	.word	0x3ff4cccc
    1f30:	00000000 	.word	0x00000000
    1f34:	3ff80000 	.word	0x3ff80000
    1f38:	9999999a 	.word	0x9999999a
    1f3c:	3ff99999 	.word	0x3ff99999
    1f40:	9999999a 	.word	0x9999999a
    1f44:	3ff19999 	.word	0x3ff19999
    1f48:	33333333 	.word	0x33333333
    1f4c:	3ff33333 	.word	0x3ff33333
    1f50:	cccccccd 	.word	0xcccccccd
    1f54:	4000cccc 	.word	0x4000cccc
    1f58:	9999999a 	.word	0x9999999a
    1f5c:	40019999 	.word	0x40019999
    1f60:	66666666 	.word	0x66666666
    1f64:	3ff66666 	.word	0x3ff66666
    1f68:	cccccccd 	.word	0xcccccccd
    1f6c:	3ff4cccc 	.word	0x3ff4cccc
    1f70:	00000000 	.word	0x00000000
    1f74:	3ff80000 	.word	0x3ff80000
    1f78:	9999999a 	.word	0x9999999a
    1f7c:	3ff99999 	.word	0x3ff99999
    1f80:	9999999a 	.word	0x9999999a
    1f84:	3ff19999 	.word	0x3ff19999
    1f88:	33333333 	.word	0x33333333
    1f8c:	3ff33333 	.word	0x3ff33333
    1f90:	cccccccd 	.word	0xcccccccd
    1f94:	4000cccc 	.word	0x4000cccc
    1f98:	9999999a 	.word	0x9999999a
    1f9c:	40019999 	.word	0x40019999
    1fa0:	66666666 	.word	0x66666666
    1fa4:	3ff66666 	.word	0x3ff66666
    1fa8:	cccccccd 	.word	0xcccccccd
    1fac:	3ff4cccc 	.word	0x3ff4cccc
    1fb0:	00000000 	.word	0x00000000
    1fb4:	3ff80000 	.word	0x3ff80000
    1fb8:	9999999a 	.word	0x9999999a
    1fbc:	3ff99999 	.word	0x3ff99999
    1fc0:	9999999a 	.word	0x9999999a
    1fc4:	3ff19999 	.word	0x3ff19999
    1fc8:	33333333 	.word	0x33333333
    1fcc:	3ff33333 	.word	0x3ff33333
    1fd0:	cccccccd 	.word	0xcccccccd
    1fd4:	4000cccc 	.word	0x4000cccc
    1fd8:	9999999a 	.word	0x9999999a
    1fdc:	40019999 	.word	0x40019999
    1fe0:	66666666 	.word	0x66666666
    1fe4:	3ff66666 	.word	0x3ff66666
    1fe8:	cccccccd 	.word	0xcccccccd
    1fec:	3ff4cccc 	.word	0x3ff4cccc
    1ff0:	00000000 	.word	0x00000000
    1ff4:	3ff80000 	.word	0x3ff80000
    1ff8:	9999999a 	.word	0x9999999a
    1ffc:	3ff99999 	.word	0x3ff99999
    2000:	9999999a 	.word	0x9999999a
    2004:	3ff19999 	.word	0x3ff19999
    2008:	33333333 	.word	0x33333333
    200c:	3ff33333 	.word	0x3ff33333
    2010:	cccccccd 	.word	0xcccccccd
    2014:	4000cccc 	.word	0x4000cccc
    2018:	9999999a 	.word	0x9999999a
    201c:	40019999 	.word	0x40019999
    2020:	66666666 	.word	0x66666666
    2024:	3ff66666 	.word	0x3ff66666
    2028:	cccccccd 	.word	0xcccccccd
    202c:	3ff4cccc 	.word	0x3ff4cccc
    2030:	00000000 	.word	0x00000000
    2034:	3ff80000 	.word	0x3ff80000
    2038:	9999999a 	.word	0x9999999a
    203c:	3ff99999 	.word	0x3ff99999
    2040:	9999999a 	.word	0x9999999a
    2044:	3ff19999 	.word	0x3ff19999
    2048:	33333333 	.word	0x33333333
    204c:	3ff33333 	.word	0x3ff33333
    2050:	cccccccd 	.word	0xcccccccd
    2054:	4000cccc 	.word	0x4000cccc
    2058:	9999999a 	.word	0x9999999a
    205c:	40019999 	.word	0x40019999
    2060:	66666666 	.word	0x66666666
    2064:	3ff66666 	.word	0x3ff66666
    2068:	cccccccd 	.word	0xcccccccd
    206c:	3ff4cccc 	.word	0x3ff4cccc
    2070:	00000000 	.word	0x00000000
    2074:	3ff80000 	.word	0x3ff80000
    2078:	9999999a 	.word	0x9999999a
    207c:	3ff99999 	.word	0x3ff99999
    2080:	9999999a 	.word	0x9999999a
    2084:	3ff19999 	.word	0x3ff19999
    2088:	33333333 	.word	0x33333333
    208c:	3ff33333 	.word	0x3ff33333
    2090:	cccccccd 	.word	0xcccccccd
    2094:	4000cccc 	.word	0x4000cccc
    2098:	9999999a 	.word	0x9999999a
    209c:	40019999 	.word	0x40019999
    20a0:	66666666 	.word	0x66666666
    20a4:	3ff66666 	.word	0x3ff66666
    20a8:	cccccccd 	.word	0xcccccccd
    20ac:	3ff4cccc 	.word	0x3ff4cccc
    20b0:	00000000 	.word	0x00000000
    20b4:	3ff80000 	.word	0x3ff80000
    20b8:	9999999a 	.word	0x9999999a
    20bc:	3ff99999 	.word	0x3ff99999
    20c0:	9999999a 	.word	0x9999999a
    20c4:	3ff19999 	.word	0x3ff19999
    20c8:	33333333 	.word	0x33333333
    20cc:	3ff33333 	.word	0x3ff33333
    20d0:	cccccccd 	.word	0xcccccccd
    20d4:	4000cccc 	.word	0x4000cccc
    20d8:	9999999a 	.word	0x9999999a
    20dc:	40019999 	.word	0x40019999
    20e0:	66666666 	.word	0x66666666
    20e4:	3ff66666 	.word	0x3ff66666
    20e8:	cccccccd 	.word	0xcccccccd
    20ec:	3ff4cccc 	.word	0x3ff4cccc
    20f0:	00000000 	.word	0x00000000
    20f4:	3ff80000 	.word	0x3ff80000
    20f8:	9999999a 	.word	0x9999999a
    20fc:	3ff99999 	.word	0x3ff99999
    2100:	9999999a 	.word	0x9999999a
    2104:	3ff19999 	.word	0x3ff19999
    2108:	33333333 	.word	0x33333333
    210c:	3ff33333 	.word	0x3ff33333
    2110:	cccccccd 	.word	0xcccccccd
    2114:	4000cccc 	.word	0x4000cccc
    2118:	9999999a 	.word	0x9999999a
    211c:	40019999 	.word	0x40019999
    2120:	66666666 	.word	0x66666666
    2124:	3ff66666 	.word	0x3ff66666
    2128:	cccccccd 	.word	0xcccccccd
    212c:	3ff4cccc 	.word	0x3ff4cccc
    2130:	00000000 	.word	0x00000000
    2134:	3ff80000 	.word	0x3ff80000
    2138:	9999999a 	.word	0x9999999a
    213c:	3ff99999 	.word	0x3ff99999
    2140:	9999999a 	.word	0x9999999a
    2144:	3ff19999 	.word	0x3ff19999
    2148:	33333333 	.word	0x33333333
    214c:	3ff33333 	.word	0x3ff33333
    2150:	cccccccd 	.word	0xcccccccd
    2154:	4000cccc 	.word	0x4000cccc
    2158:	9999999a 	.word	0x9999999a
    215c:	40019999 	.word	0x40019999
    2160:	66666666 	.word	0x66666666
    2164:	3ff66666 	.word	0x3ff66666
    2168:	cccccccd 	.word	0xcccccccd
    216c:	3ff4cccc 	.word	0x3ff4cccc
    2170:	00000000 	.word	0x00000000
    2174:	3ff80000 	.word	0x3ff80000
    2178:	9999999a 	.word	0x9999999a
    217c:	3ff99999 	.word	0x3ff99999
    2180:	9999999a 	.word	0x9999999a
    2184:	3ff19999 	.word	0x3ff19999
    2188:	33333333 	.word	0x33333333
    218c:	3ff33333 	.word	0x3ff33333
    2190:	cccccccd 	.word	0xcccccccd
    2194:	4000cccc 	.word	0x4000cccc
    2198:	9999999a 	.word	0x9999999a
    219c:	40019999 	.word	0x40019999
    21a0:	66666666 	.word	0x66666666
    21a4:	3ff66666 	.word	0x3ff66666
    21a8:	cccccccd 	.word	0xcccccccd
    21ac:	3ff4cccc 	.word	0x3ff4cccc
    21b0:	00000000 	.word	0x00000000
    21b4:	3ff80000 	.word	0x3ff80000
    21b8:	9999999a 	.word	0x9999999a
    21bc:	3ff99999 	.word	0x3ff99999
    21c0:	9999999a 	.word	0x9999999a
    21c4:	3ff19999 	.word	0x3ff19999
    21c8:	33333333 	.word	0x33333333
    21cc:	3ff33333 	.word	0x3ff33333
    21d0:	cccccccd 	.word	0xcccccccd
    21d4:	4000cccc 	.word	0x4000cccc
    21d8:	9999999a 	.word	0x9999999a
    21dc:	40019999 	.word	0x40019999
    21e0:	66666666 	.word	0x66666666
    21e4:	3ff66666 	.word	0x3ff66666
    21e8:	cccccccd 	.word	0xcccccccd
    21ec:	3ff4cccc 	.word	0x3ff4cccc
    21f0:	00000000 	.word	0x00000000
    21f4:	3ff80000 	.word	0x3ff80000
    21f8:	9999999a 	.word	0x9999999a
    21fc:	3ff99999 	.word	0x3ff99999
    2200:	9999999a 	.word	0x9999999a
    2204:	3ff19999 	.word	0x3ff19999
    2208:	33333333 	.word	0x33333333
    220c:	3ff33333 	.word	0x3ff33333
    2210:	cccccccd 	.word	0xcccccccd
    2214:	4000cccc 	.word	0x4000cccc
    2218:	9999999a 	.word	0x9999999a
    221c:	40019999 	.word	0x40019999
    2220:	66666666 	.word	0x66666666
    2224:	3ff66666 	.word	0x3ff66666
    2228:	cccccccd 	.word	0xcccccccd
    222c:	3ff4cccc 	.word	0x3ff4cccc
    2230:	00000000 	.word	0x00000000
    2234:	3ff80000 	.word	0x3ff80000
    2238:	9999999a 	.word	0x9999999a
    223c:	3ff99999 	.word	0x3ff99999
    2240:	9999999a 	.word	0x9999999a
    2244:	3ff19999 	.word	0x3ff19999
    2248:	33333333 	.word	0x33333333
    224c:	3ff33333 	.word	0x3ff33333
    2250:	cccccccd 	.word	0xcccccccd
    2254:	4000cccc 	.word	0x4000cccc
    2258:	9999999a 	.word	0x9999999a
    225c:	40019999 	.word	0x40019999
    2260:	66666666 	.word	0x66666666
    2264:	3ff66666 	.word	0x3ff66666
    2268:	cccccccd 	.word	0xcccccccd
    226c:	3ff4cccc 	.word	0x3ff4cccc
    2270:	00000000 	.word	0x00000000
    2274:	3ff80000 	.word	0x3ff80000
    2278:	9999999a 	.word	0x9999999a
    227c:	3ff99999 	.word	0x3ff99999
    2280:	9999999a 	.word	0x9999999a
    2284:	3ff19999 	.word	0x3ff19999
    2288:	33333333 	.word	0x33333333
    228c:	3ff33333 	.word	0x3ff33333
    2290:	cccccccd 	.word	0xcccccccd
    2294:	4000cccc 	.word	0x4000cccc
    2298:	9999999a 	.word	0x9999999a
    229c:	40019999 	.word	0x40019999
    22a0:	66666666 	.word	0x66666666
    22a4:	3ff66666 	.word	0x3ff66666
    22a8:	cccccccd 	.word	0xcccccccd
    22ac:	3ff4cccc 	.word	0x3ff4cccc
    22b0:	00000000 	.word	0x00000000
    22b4:	3ff80000 	.word	0x3ff80000
    22b8:	9999999a 	.word	0x9999999a
    22bc:	3ff99999 	.word	0x3ff99999
    22c0:	9999999a 	.word	0x9999999a
    22c4:	3ff19999 	.word	0x3ff19999
    22c8:	33333333 	.word	0x33333333
    22cc:	3ff33333 	.word	0x3ff33333
    22d0:	cccccccd 	.word	0xcccccccd
    22d4:	4000cccc 	.word	0x4000cccc
    22d8:	9999999a 	.word	0x9999999a
    22dc:	40019999 	.word	0x40019999
    22e0:	66666666 	.word	0x66666666
    22e4:	3ff66666 	.word	0x3ff66666
    22e8:	cccccccd 	.word	0xcccccccd
    22ec:	3ff4cccc 	.word	0x3ff4cccc
    22f0:	00000000 	.word	0x00000000
    22f4:	3ff80000 	.word	0x3ff80000
    22f8:	9999999a 	.word	0x9999999a
    22fc:	3ff99999 	.word	0x3ff99999
    2300:	9999999a 	.word	0x9999999a
    2304:	3ff19999 	.word	0x3ff19999
    2308:	33333333 	.word	0x33333333
    230c:	3ff33333 	.word	0x3ff33333
    2310:	cccccccd 	.word	0xcccccccd
    2314:	4000cccc 	.word	0x4000cccc
    2318:	9999999a 	.word	0x9999999a
    231c:	40019999 	.word	0x40019999
    2320:	66666666 	.word	0x66666666
    2324:	3ff66666 	.word	0x3ff66666
    2328:	cccccccd 	.word	0xcccccccd
    232c:	3ff4cccc 	.word	0x3ff4cccc
    2330:	00000000 	.word	0x00000000
    2334:	3ff80000 	.word	0x3ff80000
    2338:	9999999a 	.word	0x9999999a
    233c:	3ff99999 	.word	0x3ff99999
    2340:	9999999a 	.word	0x9999999a
    2344:	3ff19999 	.word	0x3ff19999
    2348:	33333333 	.word	0x33333333
    234c:	3ff33333 	.word	0x3ff33333
    2350:	cccccccd 	.word	0xcccccccd
    2354:	4000cccc 	.word	0x4000cccc
    2358:	9999999a 	.word	0x9999999a
    235c:	40019999 	.word	0x40019999
    2360:	66666666 	.word	0x66666666
    2364:	3ff66666 	.word	0x3ff66666
    2368:	cccccccd 	.word	0xcccccccd
    236c:	3ff4cccc 	.word	0x3ff4cccc
    2370:	00000000 	.word	0x00000000
    2374:	3ff80000 	.word	0x3ff80000
    2378:	9999999a 	.word	0x9999999a
    237c:	3ff99999 	.word	0x3ff99999
    2380:	9999999a 	.word	0x9999999a
    2384:	3ff19999 	.word	0x3ff19999
    2388:	33333333 	.word	0x33333333
    238c:	3ff33333 	.word	0x3ff33333
    2390:	cccccccd 	.word	0xcccccccd
    2394:	4000cccc 	.word	0x4000cccc
    2398:	9999999a 	.word	0x9999999a
    239c:	40019999 	.word	0x40019999
    23a0:	66666666 	.word	0x66666666
    23a4:	3ff66666 	.word	0x3ff66666
    23a8:	cccccccd 	.word	0xcccccccd
    23ac:	3ff4cccc 	.word	0x3ff4cccc
    23b0:	00000000 	.word	0x00000000
    23b4:	3ff80000 	.word	0x3ff80000
    23b8:	9999999a 	.word	0x9999999a
    23bc:	3ff99999 	.word	0x3ff99999
    23c0:	9999999a 	.word	0x9999999a
    23c4:	3ff19999 	.word	0x3ff19999
    23c8:	33333333 	.word	0x33333333
    23cc:	3ff33333 	.word	0x3ff33333
    23d0:	cccccccd 	.word	0xcccccccd
    23d4:	4000cccc 	.word	0x4000cccc
    23d8:	9999999a 	.word	0x9999999a
    23dc:	40019999 	.word	0x40019999
    23e0:	66666666 	.word	0x66666666
    23e4:	3ff66666 	.word	0x3ff66666
    23e8:	cccccccd 	.word	0xcccccccd
    23ec:	3ff4cccc 	.word	0x3ff4cccc
    23f0:	00000000 	.word	0x00000000
    23f4:	3ff80000 	.word	0x3ff80000
    23f8:	9999999a 	.word	0x9999999a
    23fc:	3ff99999 	.word	0x3ff99999
    2400:	9999999a 	.word	0x9999999a
    2404:	3ff19999 	.word	0x3ff19999
    2408:	33333333 	.word	0x33333333
    240c:	3ff33333 	.word	0x3ff33333
    2410:	cccccccd 	.word	0xcccccccd
    2414:	4000cccc 	.word	0x4000cccc
    2418:	9999999a 	.word	0x9999999a
    241c:	40019999 	.word	0x40019999
    2420:	66666666 	.word	0x66666666
    2424:	3ff66666 	.word	0x3ff66666
    2428:	cccccccd 	.word	0xcccccccd
    242c:	3ff4cccc 	.word	0x3ff4cccc
    2430:	00000000 	.word	0x00000000
    2434:	3ff80000 	.word	0x3ff80000
    2438:	9999999a 	.word	0x9999999a
    243c:	3ff99999 	.word	0x3ff99999
    2440:	9999999a 	.word	0x9999999a
    2444:	3ff19999 	.word	0x3ff19999
    2448:	33333333 	.word	0x33333333
    244c:	3ff33333 	.word	0x3ff33333
    2450:	cccccccd 	.word	0xcccccccd
    2454:	4000cccc 	.word	0x4000cccc
    2458:	9999999a 	.word	0x9999999a
    245c:	40019999 	.word	0x40019999
    2460:	66666666 	.word	0x66666666
    2464:	3ff66666 	.word	0x3ff66666
    2468:	cccccccd 	.word	0xcccccccd
    246c:	3ff4cccc 	.word	0x3ff4cccc
    2470:	00000000 	.word	0x00000000
    2474:	3ff80000 	.word	0x3ff80000
    2478:	9999999a 	.word	0x9999999a
    247c:	3ff99999 	.word	0x3ff99999
    2480:	9999999a 	.word	0x9999999a
    2484:	3ff19999 	.word	0x3ff19999
    2488:	33333333 	.word	0x33333333
    248c:	3ff33333 	.word	0x3ff33333
    2490:	cccccccd 	.word	0xcccccccd
    2494:	4000cccc 	.word	0x4000cccc
    2498:	9999999a 	.word	0x9999999a
    249c:	40019999 	.word	0x40019999
    24a0:	66666666 	.word	0x66666666
    24a4:	3ff66666 	.word	0x3ff66666
    24a8:	cccccccd 	.word	0xcccccccd
    24ac:	3ff4cccc 	.word	0x3ff4cccc
    24b0:	00000000 	.word	0x00000000
    24b4:	3ff80000 	.word	0x3ff80000
    24b8:	9999999a 	.word	0x9999999a
    24bc:	3ff99999 	.word	0x3ff99999
    24c0:	9999999a 	.word	0x9999999a
    24c4:	3ff19999 	.word	0x3ff19999
    24c8:	33333333 	.word	0x33333333
    24cc:	3ff33333 	.word	0x3ff33333
    24d0:	cccccccd 	.word	0xcccccccd
    24d4:	4000cccc 	.word	0x4000cccc
    24d8:	9999999a 	.word	0x9999999a
    24dc:	40019999 	.word	0x40019999
    24e0:	66666666 	.word	0x66666666
    24e4:	3ff66666 	.word	0x3ff66666
    24e8:	cccccccd 	.word	0xcccccccd
    24ec:	3ff4cccc 	.word	0x3ff4cccc
    24f0:	00000000 	.word	0x00000000
    24f4:	3ff80000 	.word	0x3ff80000
    24f8:	9999999a 	.word	0x9999999a
    24fc:	3ff99999 	.word	0x3ff99999
    2500:	9999999a 	.word	0x9999999a
    2504:	3ff19999 	.word	0x3ff19999
    2508:	33333333 	.word	0x33333333
    250c:	3ff33333 	.word	0x3ff33333
    2510:	cccccccd 	.word	0xcccccccd
    2514:	4000cccc 	.word	0x4000cccc
    2518:	9999999a 	.word	0x9999999a
    251c:	40019999 	.word	0x40019999
    2520:	66666666 	.word	0x66666666
    2524:	3ff66666 	.word	0x3ff66666
    2528:	cccccccd 	.word	0xcccccccd
    252c:	3ff4cccc 	.word	0x3ff4cccc
    2530:	00000000 	.word	0x00000000
    2534:	3ff80000 	.word	0x3ff80000
    2538:	9999999a 	.word	0x9999999a
    253c:	3ff99999 	.word	0x3ff99999
    2540:	9999999a 	.word	0x9999999a
    2544:	3ff19999 	.word	0x3ff19999
    2548:	33333333 	.word	0x33333333
    254c:	3ff33333 	.word	0x3ff33333
    2550:	cccccccd 	.word	0xcccccccd
    2554:	4000cccc 	.word	0x4000cccc
    2558:	9999999a 	.word	0x9999999a
    255c:	40019999 	.word	0x40019999
    2560:	66666666 	.word	0x66666666
    2564:	3ff66666 	.word	0x3ff66666
    2568:	cccccccd 	.word	0xcccccccd
    256c:	3ff4cccc 	.word	0x3ff4cccc
    2570:	00000000 	.word	0x00000000
    2574:	3ff80000 	.word	0x3ff80000
    2578:	9999999a 	.word	0x9999999a
    257c:	3ff99999 	.word	0x3ff99999
    2580:	9999999a 	.word	0x9999999a
    2584:	3ff19999 	.word	0x3ff19999
    2588:	33333333 	.word	0x33333333
    258c:	3ff33333 	.word	0x3ff33333
    2590:	cccccccd 	.word	0xcccccccd
    2594:	4000cccc 	.word	0x4000cccc
    2598:	9999999a 	.word	0x9999999a
    259c:	40019999 	.word	0x40019999
    25a0:	66666666 	.word	0x66666666
    25a4:	3ff66666 	.word	0x3ff66666
    25a8:	cccccccd 	.word	0xcccccccd
    25ac:	3ff4cccc 	.word	0x3ff4cccc
    25b0:	00000000 	.word	0x00000000
    25b4:	3ff80000 	.word	0x3ff80000
    25b8:	9999999a 	.word	0x9999999a
    25bc:	3ff99999 	.word	0x3ff99999
    25c0:	9999999a 	.word	0x9999999a
    25c4:	3ff19999 	.word	0x3ff19999
    25c8:	33333333 	.word	0x33333333
    25cc:	3ff33333 	.word	0x3ff33333
    25d0:	cccccccd 	.word	0xcccccccd
    25d4:	4000cccc 	.word	0x4000cccc
    25d8:	9999999a 	.word	0x9999999a
    25dc:	40019999 	.word	0x40019999
    25e0:	66666666 	.word	0x66666666
    25e4:	3ff66666 	.word	0x3ff66666
    25e8:	cccccccd 	.word	0xcccccccd
    25ec:	3ff4cccc 	.word	0x3ff4cccc
    25f0:	00000000 	.word	0x00000000
    25f4:	3ff80000 	.word	0x3ff80000
    25f8:	9999999a 	.word	0x9999999a
    25fc:	3ff99999 	.word	0x3ff99999
    2600:	9999999a 	.word	0x9999999a
    2604:	3ff19999 	.word	0x3ff19999
    2608:	33333333 	.word	0x33333333
    260c:	3ff33333 	.word	0x3ff33333
    2610:	cccccccd 	.word	0xcccccccd
    2614:	4000cccc 	.word	0x4000cccc
    2618:	9999999a 	.word	0x9999999a
    261c:	40019999 	.word	0x40019999
    2620:	66666666 	.word	0x66666666
    2624:	3ff66666 	.word	0x3ff66666
    2628:	cccccccd 	.word	0xcccccccd
    262c:	3ff4cccc 	.word	0x3ff4cccc
    2630:	00000000 	.word	0x00000000
    2634:	3ff80000 	.word	0x3ff80000
    2638:	9999999a 	.word	0x9999999a
    263c:	3ff99999 	.word	0x3ff99999
    2640:	9999999a 	.word	0x9999999a
    2644:	3ff19999 	.word	0x3ff19999
    2648:	33333333 	.word	0x33333333
    264c:	3ff33333 	.word	0x3ff33333
    2650:	cccccccd 	.word	0xcccccccd
    2654:	4000cccc 	.word	0x4000cccc
    2658:	9999999a 	.word	0x9999999a
    265c:	40019999 	.word	0x40019999
    2660:	66666666 	.word	0x66666666
    2664:	3ff66666 	.word	0x3ff66666
    2668:	cccccccd 	.word	0xcccccccd
    266c:	3ff4cccc 	.word	0x3ff4cccc
    2670:	00000000 	.word	0x00000000
    2674:	3ff80000 	.word	0x3ff80000
    2678:	9999999a 	.word	0x9999999a
    267c:	3ff99999 	.word	0x3ff99999
    2680:	9999999a 	.word	0x9999999a
    2684:	3ff19999 	.word	0x3ff19999
    2688:	33333333 	.word	0x33333333
    268c:	3ff33333 	.word	0x3ff33333
    2690:	cccccccd 	.word	0xcccccccd
    2694:	4000cccc 	.word	0x4000cccc
    2698:	9999999a 	.word	0x9999999a
    269c:	40019999 	.word	0x40019999
    26a0:	66666666 	.word	0x66666666
    26a4:	3ff66666 	.word	0x3ff66666
    26a8:	cccccccd 	.word	0xcccccccd
    26ac:	3ff4cccc 	.word	0x3ff4cccc
    26b0:	00000000 	.word	0x00000000
    26b4:	3ff80000 	.word	0x3ff80000
    26b8:	9999999a 	.word	0x9999999a
    26bc:	3ff99999 	.word	0x3ff99999
    26c0:	9999999a 	.word	0x9999999a
    26c4:	3ff19999 	.word	0x3ff19999
    26c8:	33333333 	.word	0x33333333
    26cc:	3ff33333 	.word	0x3ff33333
    26d0:	cccccccd 	.word	0xcccccccd
    26d4:	4000cccc 	.word	0x4000cccc
    26d8:	9999999a 	.word	0x9999999a
    26dc:	40019999 	.word	0x40019999
    26e0:	66666666 	.word	0x66666666
    26e4:	3ff66666 	.word	0x3ff66666
    26e8:	cccccccd 	.word	0xcccccccd
    26ec:	3ff4cccc 	.word	0x3ff4cccc
    26f0:	00000000 	.word	0x00000000
    26f4:	3ff80000 	.word	0x3ff80000
    26f8:	9999999a 	.word	0x9999999a
    26fc:	3ff99999 	.word	0x3ff99999
    2700:	9999999a 	.word	0x9999999a
    2704:	3ff19999 	.word	0x3ff19999
    2708:	33333333 	.word	0x33333333
    270c:	3ff33333 	.word	0x3ff33333
    2710:	cccccccd 	.word	0xcccccccd
    2714:	4000cccc 	.word	0x4000cccc
    2718:	9999999a 	.word	0x9999999a
    271c:	40019999 	.word	0x40019999
    2720:	66666666 	.word	0x66666666
    2724:	3ff66666 	.word	0x3ff66666
    2728:	cccccccd 	.word	0xcccccccd
    272c:	3ff4cccc 	.word	0x3ff4cccc
    2730:	00000000 	.word	0x00000000
    2734:	3ff80000 	.word	0x3ff80000
    2738:	9999999a 	.word	0x9999999a
    273c:	3ff99999 	.word	0x3ff99999
    2740:	9999999a 	.word	0x9999999a
    2744:	3ff19999 	.word	0x3ff19999
    2748:	33333333 	.word	0x33333333
    274c:	3ff33333 	.word	0x3ff33333
    2750:	cccccccd 	.word	0xcccccccd
    2754:	4000cccc 	.word	0x4000cccc
    2758:	9999999a 	.word	0x9999999a
    275c:	40019999 	.word	0x40019999
    2760:	66666666 	.word	0x66666666
    2764:	3ff66666 	.word	0x3ff66666
    2768:	cccccccd 	.word	0xcccccccd
    276c:	3ff4cccc 	.word	0x3ff4cccc
    2770:	00000000 	.word	0x00000000
    2774:	3ff80000 	.word	0x3ff80000
    2778:	9999999a 	.word	0x9999999a
    277c:	3ff99999 	.word	0x3ff99999
    2780:	9999999a 	.word	0x9999999a
    2784:	3ff19999 	.word	0x3ff19999
    2788:	33333333 	.word	0x33333333
    278c:	3ff33333 	.word	0x3ff33333
    2790:	cccccccd 	.word	0xcccccccd
    2794:	4000cccc 	.word	0x4000cccc
    2798:	9999999a 	.word	0x9999999a
    279c:	40019999 	.word	0x40019999
    27a0:	66666666 	.word	0x66666666
    27a4:	3ff66666 	.word	0x3ff66666
    27a8:	cccccccd 	.word	0xcccccccd
    27ac:	3ff4cccc 	.word	0x3ff4cccc
    27b0:	00000000 	.word	0x00000000
    27b4:	3ff80000 	.word	0x3ff80000
    27b8:	9999999a 	.word	0x9999999a
    27bc:	3ff99999 	.word	0x3ff99999
    27c0:	9999999a 	.word	0x9999999a
    27c4:	3ff19999 	.word	0x3ff19999
    27c8:	33333333 	.word	0x33333333
    27cc:	3ff33333 	.word	0x3ff33333
    27d0:	cccccccd 	.word	0xcccccccd
    27d4:	4000cccc 	.word	0x4000cccc
    27d8:	9999999a 	.word	0x9999999a
    27dc:	40019999 	.word	0x40019999
    27e0:	66666666 	.word	0x66666666
    27e4:	3ff66666 	.word	0x3ff66666
    27e8:	cccccccd 	.word	0xcccccccd
    27ec:	3ff4cccc 	.word	0x3ff4cccc
    27f0:	00000000 	.word	0x00000000
    27f4:	3ff80000 	.word	0x3ff80000
    27f8:	9999999a 	.word	0x9999999a
    27fc:	3ff99999 	.word	0x3ff99999
    2800:	9999999a 	.word	0x9999999a
    2804:	3ff19999 	.word	0x3ff19999
    2808:	33333333 	.word	0x33333333
    280c:	3ff33333 	.word	0x3ff33333
    2810:	cccccccd 	.word	0xcccccccd
    2814:	4000cccc 	.word	0x4000cccc
    2818:	9999999a 	.word	0x9999999a
    281c:	40019999 	.word	0x40019999
    2820:	66666666 	.word	0x66666666
    2824:	3ff66666 	.word	0x3ff66666
    2828:	cccccccd 	.word	0xcccccccd
    282c:	3ff4cccc 	.word	0x3ff4cccc
    2830:	00000000 	.word	0x00000000
    2834:	3ff80000 	.word	0x3ff80000
    2838:	9999999a 	.word	0x9999999a
    283c:	3ff99999 	.word	0x3ff99999
    2840:	9999999a 	.word	0x9999999a
    2844:	3ff19999 	.word	0x3ff19999
    2848:	33333333 	.word	0x33333333
    284c:	3ff33333 	.word	0x3ff33333
    2850:	cccccccd 	.word	0xcccccccd
    2854:	4000cccc 	.word	0x4000cccc
    2858:	9999999a 	.word	0x9999999a
    285c:	40019999 	.word	0x40019999
    2860:	66666666 	.word	0x66666666
    2864:	3ff66666 	.word	0x3ff66666
    2868:	cccccccd 	.word	0xcccccccd
    286c:	3ff4cccc 	.word	0x3ff4cccc
    2870:	00000000 	.word	0x00000000
    2874:	3ff80000 	.word	0x3ff80000
    2878:	9999999a 	.word	0x9999999a
    287c:	3ff99999 	.word	0x3ff99999
    2880:	9999999a 	.word	0x9999999a
    2884:	3ff19999 	.word	0x3ff19999
    2888:	33333333 	.word	0x33333333
    288c:	3ff33333 	.word	0x3ff33333
    2890:	cccccccd 	.word	0xcccccccd
    2894:	4000cccc 	.word	0x4000cccc
    2898:	9999999a 	.word	0x9999999a
    289c:	40019999 	.word	0x40019999
    28a0:	66666666 	.word	0x66666666
    28a4:	3ff66666 	.word	0x3ff66666
    28a8:	cccccccd 	.word	0xcccccccd
    28ac:	3ff4cccc 	.word	0x3ff4cccc
    28b0:	00000000 	.word	0x00000000
    28b4:	3ff80000 	.word	0x3ff80000
    28b8:	9999999a 	.word	0x9999999a
    28bc:	3ff99999 	.word	0x3ff99999
    28c0:	9999999a 	.word	0x9999999a
    28c4:	3ff19999 	.word	0x3ff19999
    28c8:	33333333 	.word	0x33333333
    28cc:	3ff33333 	.word	0x3ff33333
    28d0:	cccccccd 	.word	0xcccccccd
    28d4:	4000cccc 	.word	0x4000cccc
    28d8:	9999999a 	.word	0x9999999a
    28dc:	40019999 	.word	0x40019999
    28e0:	66666666 	.word	0x66666666
    28e4:	3ff66666 	.word	0x3ff66666
    28e8:	cccccccd 	.word	0xcccccccd
    28ec:	3ff4cccc 	.word	0x3ff4cccc
    28f0:	00000000 	.word	0x00000000
    28f4:	3ff80000 	.word	0x3ff80000
    28f8:	9999999a 	.word	0x9999999a
    28fc:	3ff99999 	.word	0x3ff99999
    2900:	9999999a 	.word	0x9999999a
    2904:	3ff19999 	.word	0x3ff19999
    2908:	33333333 	.word	0x33333333
    290c:	3ff33333 	.word	0x3ff33333
    2910:	cccccccd 	.word	0xcccccccd
    2914:	4000cccc 	.word	0x4000cccc
    2918:	9999999a 	.word	0x9999999a
    291c:	40019999 	.word	0x40019999
    2920:	66666666 	.word	0x66666666
    2924:	3ff66666 	.word	0x3ff66666
    2928:	cccccccd 	.word	0xcccccccd
    292c:	3ff4cccc 	.word	0x3ff4cccc
    2930:	00000000 	.word	0x00000000
    2934:	3ff80000 	.word	0x3ff80000
    2938:	9999999a 	.word	0x9999999a
    293c:	3ff99999 	.word	0x3ff99999
    2940:	9999999a 	.word	0x9999999a
    2944:	3ff19999 	.word	0x3ff19999
    2948:	33333333 	.word	0x33333333
    294c:	3ff33333 	.word	0x3ff33333
    2950:	cccccccd 	.word	0xcccccccd
    2954:	4000cccc 	.word	0x4000cccc
    2958:	9999999a 	.word	0x9999999a
    295c:	40019999 	.word	0x40019999
    2960:	66666666 	.word	0x66666666
    2964:	3ff66666 	.word	0x3ff66666
    2968:	cccccccd 	.word	0xcccccccd
    296c:	3ff4cccc 	.word	0x3ff4cccc
    2970:	00000000 	.word	0x00000000
    2974:	3ff80000 	.word	0x3ff80000
    2978:	9999999a 	.word	0x9999999a
    297c:	3ff99999 	.word	0x3ff99999
    2980:	9999999a 	.word	0x9999999a
    2984:	3ff19999 	.word	0x3ff19999
    2988:	33333333 	.word	0x33333333
    298c:	3ff33333 	.word	0x3ff33333
    2990:	cccccccd 	.word	0xcccccccd
    2994:	4000cccc 	.word	0x4000cccc
    2998:	9999999a 	.word	0x9999999a
    299c:	40019999 	.word	0x40019999
    29a0:	66666666 	.word	0x66666666
    29a4:	3ff66666 	.word	0x3ff66666
    29a8:	cccccccd 	.word	0xcccccccd
    29ac:	3ff4cccc 	.word	0x3ff4cccc
    29b0:	00000000 	.word	0x00000000
    29b4:	3ff80000 	.word	0x3ff80000
    29b8:	9999999a 	.word	0x9999999a
    29bc:	3ff99999 	.word	0x3ff99999
    29c0:	9999999a 	.word	0x9999999a
    29c4:	3ff19999 	.word	0x3ff19999
    29c8:	33333333 	.word	0x33333333
    29cc:	3ff33333 	.word	0x3ff33333
    29d0:	cccccccd 	.word	0xcccccccd
    29d4:	4000cccc 	.word	0x4000cccc
    29d8:	9999999a 	.word	0x9999999a
    29dc:	40019999 	.word	0x40019999
    29e0:	66666666 	.word	0x66666666
    29e4:	3ff66666 	.word	0x3ff66666
    29e8:	cccccccd 	.word	0xcccccccd
    29ec:	3ff4cccc 	.word	0x3ff4cccc
    29f0:	00000000 	.word	0x00000000
    29f4:	3ff80000 	.word	0x3ff80000
    29f8:	9999999a 	.word	0x9999999a
    29fc:	3ff99999 	.word	0x3ff99999
    2a00:	9999999a 	.word	0x9999999a
    2a04:	3ff19999 	.word	0x3ff19999
    2a08:	33333333 	.word	0x33333333
    2a0c:	3ff33333 	.word	0x3ff33333
    2a10:	cccccccd 	.word	0xcccccccd
    2a14:	4000cccc 	.word	0x4000cccc
    2a18:	9999999a 	.word	0x9999999a
    2a1c:	40019999 	.word	0x40019999
    2a20:	66666666 	.word	0x66666666
    2a24:	3ff66666 	.word	0x3ff66666
    2a28:	cccccccd 	.word	0xcccccccd
    2a2c:	3ff4cccc 	.word	0x3ff4cccc
    2a30:	00000000 	.word	0x00000000
    2a34:	3ff80000 	.word	0x3ff80000
    2a38:	9999999a 	.word	0x9999999a
    2a3c:	3ff99999 	.word	0x3ff99999
    2a40:	9999999a 	.word	0x9999999a
    2a44:	3ff19999 	.word	0x3ff19999
    2a48:	33333333 	.word	0x33333333
    2a4c:	3ff33333 	.word	0x3ff33333
    2a50:	cccccccd 	.word	0xcccccccd
    2a54:	4000cccc 	.word	0x4000cccc
    2a58:	9999999a 	.word	0x9999999a
    2a5c:	40019999 	.word	0x40019999
    2a60:	66666666 	.word	0x66666666
    2a64:	3ff66666 	.word	0x3ff66666
    2a68:	cccccccd 	.word	0xcccccccd
    2a6c:	3ff4cccc 	.word	0x3ff4cccc
    2a70:	00000000 	.word	0x00000000
    2a74:	3ff80000 	.word	0x3ff80000
    2a78:	9999999a 	.word	0x9999999a
    2a7c:	3ff99999 	.word	0x3ff99999
    2a80:	9999999a 	.word	0x9999999a
    2a84:	3ff19999 	.word	0x3ff19999
    2a88:	33333333 	.word	0x33333333
    2a8c:	3ff33333 	.word	0x3ff33333
    2a90:	cccccccd 	.word	0xcccccccd
    2a94:	4000cccc 	.word	0x4000cccc
    2a98:	9999999a 	.word	0x9999999a
    2a9c:	40019999 	.word	0x40019999
    2aa0:	66666666 	.word	0x66666666
    2aa4:	3ff66666 	.word	0x3ff66666
    2aa8:	cccccccd 	.word	0xcccccccd
    2aac:	3ff4cccc 	.word	0x3ff4cccc
    2ab0:	00000000 	.word	0x00000000
    2ab4:	3ff80000 	.word	0x3ff80000
    2ab8:	9999999a 	.word	0x9999999a
    2abc:	3ff99999 	.word	0x3ff99999
    2ac0:	9999999a 	.word	0x9999999a
    2ac4:	3ff19999 	.word	0x3ff19999
    2ac8:	33333333 	.word	0x33333333
    2acc:	3ff33333 	.word	0x3ff33333
    2ad0:	cccccccd 	.word	0xcccccccd
    2ad4:	4000cccc 	.word	0x4000cccc
    2ad8:	9999999a 	.word	0x9999999a
    2adc:	40019999 	.word	0x40019999
    2ae0:	66666666 	.word	0x66666666
    2ae4:	3ff66666 	.word	0x3ff66666
    2ae8:	cccccccd 	.word	0xcccccccd
    2aec:	3ff4cccc 	.word	0x3ff4cccc
    2af0:	00000000 	.word	0x00000000
    2af4:	3ff80000 	.word	0x3ff80000
    2af8:	9999999a 	.word	0x9999999a
    2afc:	3ff99999 	.word	0x3ff99999
    2b00:	9999999a 	.word	0x9999999a
    2b04:	3ff19999 	.word	0x3ff19999
    2b08:	33333333 	.word	0x33333333
    2b0c:	3ff33333 	.word	0x3ff33333
    2b10:	cccccccd 	.word	0xcccccccd
    2b14:	4000cccc 	.word	0x4000cccc
    2b18:	9999999a 	.word	0x9999999a
    2b1c:	40019999 	.word	0x40019999
    2b20:	66666666 	.word	0x66666666
    2b24:	3ff66666 	.word	0x3ff66666
    2b28:	cccccccd 	.word	0xcccccccd
    2b2c:	3ff4cccc 	.word	0x3ff4cccc
    2b30:	00000000 	.word	0x00000000
    2b34:	3ff80000 	.word	0x3ff80000
    2b38:	9999999a 	.word	0x9999999a
    2b3c:	3ff99999 	.word	0x3ff99999
    2b40:	9999999a 	.word	0x9999999a
    2b44:	3ff19999 	.word	0x3ff19999
    2b48:	33333333 	.word	0x33333333
    2b4c:	3ff33333 	.word	0x3ff33333
    2b50:	cccccccd 	.word	0xcccccccd
    2b54:	4000cccc 	.word	0x4000cccc
    2b58:	9999999a 	.word	0x9999999a
    2b5c:	40019999 	.word	0x40019999
    2b60:	66666666 	.word	0x66666666
    2b64:	3ff66666 	.word	0x3ff66666
    2b68:	cccccccd 	.word	0xcccccccd
    2b6c:	3ff4cccc 	.word	0x3ff4cccc
    2b70:	00000000 	.word	0x00000000
    2b74:	3ff80000 	.word	0x3ff80000
    2b78:	9999999a 	.word	0x9999999a
    2b7c:	3ff99999 	.word	0x3ff99999
    2b80:	9999999a 	.word	0x9999999a
    2b84:	3ff19999 	.word	0x3ff19999
    2b88:	33333333 	.word	0x33333333
    2b8c:	3ff33333 	.word	0x3ff33333
    2b90:	cccccccd 	.word	0xcccccccd
    2b94:	4000cccc 	.word	0x4000cccc
    2b98:	9999999a 	.word	0x9999999a
    2b9c:	40019999 	.word	0x40019999
    2ba0:	66666666 	.word	0x66666666
    2ba4:	3ff66666 	.word	0x3ff66666
    2ba8:	cccccccd 	.word	0xcccccccd
    2bac:	3ff4cccc 	.word	0x3ff4cccc
    2bb0:	00000000 	.word	0x00000000
    2bb4:	3ff80000 	.word	0x3ff80000
    2bb8:	9999999a 	.word	0x9999999a
    2bbc:	3ff99999 	.word	0x3ff99999
    2bc0:	9999999a 	.word	0x9999999a
    2bc4:	3ff19999 	.word	0x3ff19999
    2bc8:	33333333 	.word	0x33333333
    2bcc:	3ff33333 	.word	0x3ff33333
    2bd0:	cccccccd 	.word	0xcccccccd
    2bd4:	4000cccc 	.word	0x4000cccc
    2bd8:	9999999a 	.word	0x9999999a
    2bdc:	40019999 	.word	0x40019999
    2be0:	66666666 	.word	0x66666666
    2be4:	3ff66666 	.word	0x3ff66666
    2be8:	cccccccd 	.word	0xcccccccd
    2bec:	3ff4cccc 	.word	0x3ff4cccc
    2bf0:	00000000 	.word	0x00000000
    2bf4:	3ff80000 	.word	0x3ff80000
    2bf8:	9999999a 	.word	0x9999999a
    2bfc:	3ff99999 	.word	0x3ff99999
    2c00:	9999999a 	.word	0x9999999a
    2c04:	3ff19999 	.word	0x3ff19999
    2c08:	33333333 	.word	0x33333333
    2c0c:	3ff33333 	.word	0x3ff33333
    2c10:	cccccccd 	.word	0xcccccccd
    2c14:	4000cccc 	.word	0x4000cccc
    2c18:	9999999a 	.word	0x9999999a
    2c1c:	40019999 	.word	0x40019999
    2c20:	66666666 	.word	0x66666666
    2c24:	3ff66666 	.word	0x3ff66666
    2c28:	cccccccd 	.word	0xcccccccd
    2c2c:	3ff4cccc 	.word	0x3ff4cccc
    2c30:	00000000 	.word	0x00000000
    2c34:	3ff80000 	.word	0x3ff80000
    2c38:	9999999a 	.word	0x9999999a
    2c3c:	3ff99999 	.word	0x3ff99999
    2c40:	9999999a 	.word	0x9999999a
    2c44:	3ff19999 	.word	0x3ff19999
    2c48:	33333333 	.word	0x33333333
    2c4c:	3ff33333 	.word	0x3ff33333
    2c50:	cccccccd 	.word	0xcccccccd
    2c54:	4000cccc 	.word	0x4000cccc
    2c58:	9999999a 	.word	0x9999999a
    2c5c:	40019999 	.word	0x40019999
    2c60:	66666666 	.word	0x66666666
    2c64:	3ff66666 	.word	0x3ff66666
    2c68:	cccccccd 	.word	0xcccccccd
    2c6c:	3ff4cccc 	.word	0x3ff4cccc
    2c70:	00000000 	.word	0x00000000
    2c74:	3ff80000 	.word	0x3ff80000
    2c78:	9999999a 	.word	0x9999999a
    2c7c:	3ff99999 	.word	0x3ff99999
    2c80:	9999999a 	.word	0x9999999a
    2c84:	3ff19999 	.word	0x3ff19999
    2c88:	33333333 	.word	0x33333333
    2c8c:	3ff33333 	.word	0x3ff33333
    2c90:	cccccccd 	.word	0xcccccccd
    2c94:	4000cccc 	.word	0x4000cccc
    2c98:	9999999a 	.word	0x9999999a
    2c9c:	40019999 	.word	0x40019999
    2ca0:	66666666 	.word	0x66666666
    2ca4:	3ff66666 	.word	0x3ff66666
    2ca8:	cccccccd 	.word	0xcccccccd
    2cac:	3ff4cccc 	.word	0x3ff4cccc
    2cb0:	00000000 	.word	0x00000000
    2cb4:	3ff80000 	.word	0x3ff80000
    2cb8:	9999999a 	.word	0x9999999a
    2cbc:	3ff99999 	.word	0x3ff99999
    2cc0:	9999999a 	.word	0x9999999a
    2cc4:	3ff19999 	.word	0x3ff19999
    2cc8:	33333333 	.word	0x33333333
    2ccc:	3ff33333 	.word	0x3ff33333
    2cd0:	cccccccd 	.word	0xcccccccd
    2cd4:	4000cccc 	.word	0x4000cccc
    2cd8:	9999999a 	.word	0x9999999a
    2cdc:	40019999 	.word	0x40019999
    2ce0:	66666666 	.word	0x66666666
    2ce4:	3ff66666 	.word	0x3ff66666
    2ce8:	cccccccd 	.word	0xcccccccd
    2cec:	3ff4cccc 	.word	0x3ff4cccc
    2cf0:	00000000 	.word	0x00000000
    2cf4:	3ff80000 	.word	0x3ff80000
    2cf8:	9999999a 	.word	0x9999999a
    2cfc:	3ff99999 	.word	0x3ff99999
    2d00:	9999999a 	.word	0x9999999a
    2d04:	3ff19999 	.word	0x3ff19999
    2d08:	33333333 	.word	0x33333333
    2d0c:	3ff33333 	.word	0x3ff33333
    2d10:	cccccccd 	.word	0xcccccccd
    2d14:	4000cccc 	.word	0x4000cccc
    2d18:	9999999a 	.word	0x9999999a
    2d1c:	40019999 	.word	0x40019999
    2d20:	66666666 	.word	0x66666666
    2d24:	3ff66666 	.word	0x3ff66666
    2d28:	cccccccd 	.word	0xcccccccd
    2d2c:	3ff4cccc 	.word	0x3ff4cccc
    2d30:	00000000 	.word	0x00000000
    2d34:	3ff80000 	.word	0x3ff80000
    2d38:	9999999a 	.word	0x9999999a
    2d3c:	3ff99999 	.word	0x3ff99999
    2d40:	9999999a 	.word	0x9999999a
    2d44:	3ff19999 	.word	0x3ff19999
    2d48:	33333333 	.word	0x33333333
    2d4c:	3ff33333 	.word	0x3ff33333
    2d50:	cccccccd 	.word	0xcccccccd
    2d54:	4000cccc 	.word	0x4000cccc
    2d58:	9999999a 	.word	0x9999999a
    2d5c:	40019999 	.word	0x40019999
    2d60:	66666666 	.word	0x66666666
    2d64:	3ff66666 	.word	0x3ff66666
    2d68:	cccccccd 	.word	0xcccccccd
    2d6c:	3ff4cccc 	.word	0x3ff4cccc
    2d70:	00000000 	.word	0x00000000
    2d74:	3ff80000 	.word	0x3ff80000
    2d78:	9999999a 	.word	0x9999999a
    2d7c:	3ff99999 	.word	0x3ff99999
    2d80:	9999999a 	.word	0x9999999a
    2d84:	3ff19999 	.word	0x3ff19999
    2d88:	33333333 	.word	0x33333333
    2d8c:	3ff33333 	.word	0x3ff33333
    2d90:	cccccccd 	.word	0xcccccccd
    2d94:	4000cccc 	.word	0x4000cccc
    2d98:	9999999a 	.word	0x9999999a
    2d9c:	40019999 	.word	0x40019999
    2da0:	66666666 	.word	0x66666666
    2da4:	3ff66666 	.word	0x3ff66666
    2da8:	cccccccd 	.word	0xcccccccd
    2dac:	3ff4cccc 	.word	0x3ff4cccc
    2db0:	00000000 	.word	0x00000000
    2db4:	3ff80000 	.word	0x3ff80000
    2db8:	9999999a 	.word	0x9999999a
    2dbc:	3ff99999 	.word	0x3ff99999
    2dc0:	9999999a 	.word	0x9999999a
    2dc4:	3ff19999 	.word	0x3ff19999
    2dc8:	33333333 	.word	0x33333333
    2dcc:	3ff33333 	.word	0x3ff33333
    2dd0:	cccccccd 	.word	0xcccccccd
    2dd4:	4000cccc 	.word	0x4000cccc
    2dd8:	9999999a 	.word	0x9999999a
    2ddc:	40019999 	.word	0x40019999
    2de0:	66666666 	.word	0x66666666
    2de4:	3ff66666 	.word	0x3ff66666
    2de8:	cccccccd 	.word	0xcccccccd
    2dec:	3ff4cccc 	.word	0x3ff4cccc
    2df0:	00000000 	.word	0x00000000
    2df4:	3ff80000 	.word	0x3ff80000
    2df8:	9999999a 	.word	0x9999999a
    2dfc:	3ff99999 	.word	0x3ff99999
    2e00:	9999999a 	.word	0x9999999a
    2e04:	3ff19999 	.word	0x3ff19999
    2e08:	33333333 	.word	0x33333333
    2e0c:	3ff33333 	.word	0x3ff33333
    2e10:	cccccccd 	.word	0xcccccccd
    2e14:	4000cccc 	.word	0x4000cccc
    2e18:	9999999a 	.word	0x9999999a
    2e1c:	40019999 	.word	0x40019999
    2e20:	66666666 	.word	0x66666666
    2e24:	3ff66666 	.word	0x3ff66666
    2e28:	cccccccd 	.word	0xcccccccd
    2e2c:	3ff4cccc 	.word	0x3ff4cccc
    2e30:	00000000 	.word	0x00000000
    2e34:	3ff80000 	.word	0x3ff80000
    2e38:	9999999a 	.word	0x9999999a
    2e3c:	3ff99999 	.word	0x3ff99999
    2e40:	9999999a 	.word	0x9999999a
    2e44:	3ff19999 	.word	0x3ff19999
    2e48:	33333333 	.word	0x33333333
    2e4c:	3ff33333 	.word	0x3ff33333
    2e50:	cccccccd 	.word	0xcccccccd
    2e54:	4000cccc 	.word	0x4000cccc
    2e58:	9999999a 	.word	0x9999999a
    2e5c:	40019999 	.word	0x40019999
    2e60:	66666666 	.word	0x66666666
    2e64:	3ff66666 	.word	0x3ff66666
    2e68:	cccccccd 	.word	0xcccccccd
    2e6c:	3ff4cccc 	.word	0x3ff4cccc
    2e70:	00000000 	.word	0x00000000
    2e74:	3ff80000 	.word	0x3ff80000
    2e78:	9999999a 	.word	0x9999999a
    2e7c:	3ff99999 	.word	0x3ff99999
    2e80:	9999999a 	.word	0x9999999a
    2e84:	3ff19999 	.word	0x3ff19999
    2e88:	33333333 	.word	0x33333333
    2e8c:	3ff33333 	.word	0x3ff33333
    2e90:	cccccccd 	.word	0xcccccccd
    2e94:	4000cccc 	.word	0x4000cccc
    2e98:	9999999a 	.word	0x9999999a
    2e9c:	40019999 	.word	0x40019999
    2ea0:	66666666 	.word	0x66666666
    2ea4:	3ff66666 	.word	0x3ff66666
    2ea8:	cccccccd 	.word	0xcccccccd
    2eac:	3ff4cccc 	.word	0x3ff4cccc
    2eb0:	00000000 	.word	0x00000000
    2eb4:	3ff80000 	.word	0x3ff80000
    2eb8:	9999999a 	.word	0x9999999a
    2ebc:	3ff99999 	.word	0x3ff99999
    2ec0:	9999999a 	.word	0x9999999a
    2ec4:	3ff19999 	.word	0x3ff19999
    2ec8:	33333333 	.word	0x33333333
    2ecc:	3ff33333 	.word	0x3ff33333
    2ed0:	cccccccd 	.word	0xcccccccd
    2ed4:	4000cccc 	.word	0x4000cccc
    2ed8:	9999999a 	.word	0x9999999a
    2edc:	40019999 	.word	0x40019999
    2ee0:	66666666 	.word	0x66666666
    2ee4:	3ff66666 	.word	0x3ff66666
    2ee8:	cccccccd 	.word	0xcccccccd
    2eec:	3ff4cccc 	.word	0x3ff4cccc
    2ef0:	00000000 	.word	0x00000000
    2ef4:	3ff80000 	.word	0x3ff80000
    2ef8:	9999999a 	.word	0x9999999a
    2efc:	3ff99999 	.word	0x3ff99999
    2f00:	9999999a 	.word	0x9999999a
    2f04:	3ff19999 	.word	0x3ff19999
    2f08:	33333333 	.word	0x33333333
    2f0c:	3ff33333 	.word	0x3ff33333
    2f10:	cccccccd 	.word	0xcccccccd
    2f14:	4000cccc 	.word	0x4000cccc
    2f18:	9999999a 	.word	0x9999999a
    2f1c:	40019999 	.word	0x40019999
    2f20:	66666666 	.word	0x66666666
    2f24:	3ff66666 	.word	0x3ff66666
    2f28:	cccccccd 	.word	0xcccccccd
    2f2c:	3ff4cccc 	.word	0x3ff4cccc
    2f30:	00000000 	.word	0x00000000
    2f34:	3ff80000 	.word	0x3ff80000
    2f38:	9999999a 	.word	0x9999999a
    2f3c:	3ff99999 	.word	0x3ff99999
    2f40:	9999999a 	.word	0x9999999a
    2f44:	3ff19999 	.word	0x3ff19999
    2f48:	33333333 	.word	0x33333333
    2f4c:	3ff33333 	.word	0x3ff33333
    2f50:	cccccccd 	.word	0xcccccccd
    2f54:	4000cccc 	.word	0x4000cccc
    2f58:	9999999a 	.word	0x9999999a
    2f5c:	40019999 	.word	0x40019999
    2f60:	66666666 	.word	0x66666666
    2f64:	3ff66666 	.word	0x3ff66666
    2f68:	cccccccd 	.word	0xcccccccd
    2f6c:	3ff4cccc 	.word	0x3ff4cccc
    2f70:	00000000 	.word	0x00000000
    2f74:	3ff80000 	.word	0x3ff80000
    2f78:	9999999a 	.word	0x9999999a
    2f7c:	3ff99999 	.word	0x3ff99999
    2f80:	9999999a 	.word	0x9999999a
    2f84:	3ff19999 	.word	0x3ff19999
    2f88:	33333333 	.word	0x33333333
    2f8c:	3ff33333 	.word	0x3ff33333
    2f90:	cccccccd 	.word	0xcccccccd
    2f94:	4000cccc 	.word	0x4000cccc
    2f98:	9999999a 	.word	0x9999999a
    2f9c:	40019999 	.word	0x40019999
    2fa0:	66666666 	.word	0x66666666
    2fa4:	3ff66666 	.word	0x3ff66666
    2fa8:	cccccccd 	.word	0xcccccccd
    2fac:	3ff4cccc 	.word	0x3ff4cccc
    2fb0:	00000000 	.word	0x00000000
    2fb4:	3ff80000 	.word	0x3ff80000
    2fb8:	9999999a 	.word	0x9999999a
    2fbc:	3ff99999 	.word	0x3ff99999
    2fc0:	9999999a 	.word	0x9999999a
    2fc4:	3ff19999 	.word	0x3ff19999
    2fc8:	33333333 	.word	0x33333333
    2fcc:	3ff33333 	.word	0x3ff33333
    2fd0:	cccccccd 	.word	0xcccccccd
    2fd4:	4000cccc 	.word	0x4000cccc
    2fd8:	9999999a 	.word	0x9999999a
    2fdc:	40019999 	.word	0x40019999
    2fe0:	66666666 	.word	0x66666666
    2fe4:	3ff66666 	.word	0x3ff66666
    2fe8:	cccccccd 	.word	0xcccccccd
    2fec:	3ff4cccc 	.word	0x3ff4cccc
    2ff0:	00000000 	.word	0x00000000
    2ff4:	3ff80000 	.word	0x3ff80000
    2ff8:	9999999a 	.word	0x9999999a
    2ffc:	3ff99999 	.word	0x3ff99999
    3000:	9999999a 	.word	0x9999999a
    3004:	3ff19999 	.word	0x3ff19999
    3008:	33333333 	.word	0x33333333
    300c:	3ff33333 	.word	0x3ff33333
    3010:	cccccccd 	.word	0xcccccccd
    3014:	4000cccc 	.word	0x4000cccc
    3018:	9999999a 	.word	0x9999999a
    301c:	40019999 	.word	0x40019999
    3020:	66666666 	.word	0x66666666
    3024:	3ff66666 	.word	0x3ff66666
    3028:	cccccccd 	.word	0xcccccccd
    302c:	3ff4cccc 	.word	0x3ff4cccc
    3030:	00000000 	.word	0x00000000
    3034:	3ff80000 	.word	0x3ff80000
    3038:	9999999a 	.word	0x9999999a
    303c:	3ff99999 	.word	0x3ff99999
    3040:	9999999a 	.word	0x9999999a
    3044:	3ff19999 	.word	0x3ff19999
    3048:	33333333 	.word	0x33333333
    304c:	3ff33333 	.word	0x3ff33333
    3050:	cccccccd 	.word	0xcccccccd
    3054:	4000cccc 	.word	0x4000cccc
    3058:	9999999a 	.word	0x9999999a
    305c:	40019999 	.word	0x40019999
    3060:	66666666 	.word	0x66666666
    3064:	3ff66666 	.word	0x3ff66666
    3068:	cccccccd 	.word	0xcccccccd
    306c:	3ff4cccc 	.word	0x3ff4cccc
    3070:	00000000 	.word	0x00000000
    3074:	3ff80000 	.word	0x3ff80000
    3078:	9999999a 	.word	0x9999999a
    307c:	3ff99999 	.word	0x3ff99999
    3080:	9999999a 	.word	0x9999999a
    3084:	3ff19999 	.word	0x3ff19999
    3088:	33333333 	.word	0x33333333
    308c:	3ff33333 	.word	0x3ff33333
    3090:	cccccccd 	.word	0xcccccccd
    3094:	4000cccc 	.word	0x4000cccc
    3098:	9999999a 	.word	0x9999999a
    309c:	40019999 	.word	0x40019999
    30a0:	66666666 	.word	0x66666666
    30a4:	3ff66666 	.word	0x3ff66666
    30a8:	cccccccd 	.word	0xcccccccd
    30ac:	3ff4cccc 	.word	0x3ff4cccc
    30b0:	00000000 	.word	0x00000000
    30b4:	3ff80000 	.word	0x3ff80000
    30b8:	9999999a 	.word	0x9999999a
    30bc:	3ff99999 	.word	0x3ff99999
    30c0:	9999999a 	.word	0x9999999a
    30c4:	3ff19999 	.word	0x3ff19999
    30c8:	33333333 	.word	0x33333333
    30cc:	3ff33333 	.word	0x3ff33333
    30d0:	cccccccd 	.word	0xcccccccd
    30d4:	4000cccc 	.word	0x4000cccc
    30d8:	9999999a 	.word	0x9999999a
    30dc:	40019999 	.word	0x40019999
    30e0:	66666666 	.word	0x66666666
    30e4:	3ff66666 	.word	0x3ff66666
    30e8:	cccccccd 	.word	0xcccccccd
    30ec:	3ff4cccc 	.word	0x3ff4cccc
    30f0:	00000000 	.word	0x00000000
    30f4:	3ff80000 	.word	0x3ff80000
    30f8:	9999999a 	.word	0x9999999a
    30fc:	3ff99999 	.word	0x3ff99999
    3100:	9999999a 	.word	0x9999999a
    3104:	3ff19999 	.word	0x3ff19999
    3108:	33333333 	.word	0x33333333
    310c:	3ff33333 	.word	0x3ff33333
    3110:	cccccccd 	.word	0xcccccccd
    3114:	4000cccc 	.word	0x4000cccc
    3118:	9999999a 	.word	0x9999999a
    311c:	40019999 	.word	0x40019999
    3120:	66666666 	.word	0x66666666
    3124:	3ff66666 	.word	0x3ff66666
    3128:	cccccccd 	.word	0xcccccccd
    312c:	3ff4cccc 	.word	0x3ff4cccc
    3130:	00000000 	.word	0x00000000
    3134:	3ff80000 	.word	0x3ff80000
    3138:	9999999a 	.word	0x9999999a
    313c:	3ff99999 	.word	0x3ff99999
    3140:	9999999a 	.word	0x9999999a
    3144:	3ff19999 	.word	0x3ff19999
    3148:	33333333 	.word	0x33333333
    314c:	3ff33333 	.word	0x3ff33333
    3150:	cccccccd 	.word	0xcccccccd
    3154:	4000cccc 	.word	0x4000cccc
    3158:	9999999a 	.word	0x9999999a
    315c:	40019999 	.word	0x40019999
    3160:	66666666 	.word	0x66666666
    3164:	3ff66666 	.word	0x3ff66666
    3168:	cccccccd 	.word	0xcccccccd
    316c:	3ff4cccc 	.word	0x3ff4cccc
    3170:	00000000 	.word	0x00000000
    3174:	3ff80000 	.word	0x3ff80000
    3178:	9999999a 	.word	0x9999999a
    317c:	3ff99999 	.word	0x3ff99999
    3180:	9999999a 	.word	0x9999999a
    3184:	3ff19999 	.word	0x3ff19999
    3188:	33333333 	.word	0x33333333
    318c:	3ff33333 	.word	0x3ff33333
    3190:	cccccccd 	.word	0xcccccccd
    3194:	4000cccc 	.word	0x4000cccc
    3198:	9999999a 	.word	0x9999999a
    319c:	40019999 	.word	0x40019999
    31a0:	66666666 	.word	0x66666666
    31a4:	3ff66666 	.word	0x3ff66666
    31a8:	cccccccd 	.word	0xcccccccd
    31ac:	3ff4cccc 	.word	0x3ff4cccc
    31b0:	00000000 	.word	0x00000000
    31b4:	3ff80000 	.word	0x3ff80000
    31b8:	9999999a 	.word	0x9999999a
    31bc:	3ff99999 	.word	0x3ff99999
    31c0:	9999999a 	.word	0x9999999a
    31c4:	3ff19999 	.word	0x3ff19999
    31c8:	33333333 	.word	0x33333333
    31cc:	3ff33333 	.word	0x3ff33333
    31d0:	cccccccd 	.word	0xcccccccd
    31d4:	4000cccc 	.word	0x4000cccc
    31d8:	9999999a 	.word	0x9999999a
    31dc:	40019999 	.word	0x40019999
    31e0:	66666666 	.word	0x66666666
    31e4:	3ff66666 	.word	0x3ff66666
    31e8:	cccccccd 	.word	0xcccccccd
    31ec:	3ff4cccc 	.word	0x3ff4cccc
    31f0:	00000000 	.word	0x00000000
    31f4:	3ff80000 	.word	0x3ff80000
    31f8:	9999999a 	.word	0x9999999a
    31fc:	3ff99999 	.word	0x3ff99999
    3200:	9999999a 	.word	0x9999999a
    3204:	3ff19999 	.word	0x3ff19999
    3208:	33333333 	.word	0x33333333
    320c:	3ff33333 	.word	0x3ff33333
    3210:	cccccccd 	.word	0xcccccccd
    3214:	4000cccc 	.word	0x4000cccc
    3218:	9999999a 	.word	0x9999999a
    321c:	40019999 	.word	0x40019999
    3220:	66666666 	.word	0x66666666
    3224:	3ff66666 	.word	0x3ff66666
    3228:	cccccccd 	.word	0xcccccccd
    322c:	3ff4cccc 	.word	0x3ff4cccc
    3230:	00000000 	.word	0x00000000
    3234:	3ff80000 	.word	0x3ff80000
    3238:	9999999a 	.word	0x9999999a
    323c:	3ff99999 	.word	0x3ff99999
    3240:	9999999a 	.word	0x9999999a
    3244:	3ff19999 	.word	0x3ff19999
    3248:	33333333 	.word	0x33333333
    324c:	3ff33333 	.word	0x3ff33333
    3250:	cccccccd 	.word	0xcccccccd
    3254:	4000cccc 	.word	0x4000cccc
    3258:	9999999a 	.word	0x9999999a
    325c:	40019999 	.word	0x40019999
    3260:	66666666 	.word	0x66666666
    3264:	3ff66666 	.word	0x3ff66666
    3268:	cccccccd 	.word	0xcccccccd
    326c:	3ff4cccc 	.word	0x3ff4cccc
    3270:	00000000 	.word	0x00000000
    3274:	3ff80000 	.word	0x3ff80000
    3278:	9999999a 	.word	0x9999999a
    327c:	3ff99999 	.word	0x3ff99999
    3280:	9999999a 	.word	0x9999999a
    3284:	3ff19999 	.word	0x3ff19999
    3288:	33333333 	.word	0x33333333
    328c:	3ff33333 	.word	0x3ff33333
    3290:	cccccccd 	.word	0xcccccccd
    3294:	4000cccc 	.word	0x4000cccc
    3298:	9999999a 	.word	0x9999999a
    329c:	40019999 	.word	0x40019999
    32a0:	66666666 	.word	0x66666666
    32a4:	3ff66666 	.word	0x3ff66666
    32a8:	cccccccd 	.word	0xcccccccd
    32ac:	3ff4cccc 	.word	0x3ff4cccc
    32b0:	00000000 	.word	0x00000000
    32b4:	3ff80000 	.word	0x3ff80000
    32b8:	9999999a 	.word	0x9999999a
    32bc:	3ff99999 	.word	0x3ff99999
    32c0:	9999999a 	.word	0x9999999a
    32c4:	3ff19999 	.word	0x3ff19999
    32c8:	33333333 	.word	0x33333333
    32cc:	3ff33333 	.word	0x3ff33333
    32d0:	cccccccd 	.word	0xcccccccd
    32d4:	4000cccc 	.word	0x4000cccc
    32d8:	9999999a 	.word	0x9999999a
    32dc:	40019999 	.word	0x40019999
    32e0:	66666666 	.word	0x66666666
    32e4:	3ff66666 	.word	0x3ff66666
    32e8:	cccccccd 	.word	0xcccccccd
    32ec:	3ff4cccc 	.word	0x3ff4cccc
    32f0:	00000000 	.word	0x00000000
    32f4:	3ff80000 	.word	0x3ff80000
    32f8:	9999999a 	.word	0x9999999a
    32fc:	3ff99999 	.word	0x3ff99999
    3300:	9999999a 	.word	0x9999999a
    3304:	3ff19999 	.word	0x3ff19999
    3308:	33333333 	.word	0x33333333
    330c:	3ff33333 	.word	0x3ff33333
    3310:	cccccccd 	.word	0xcccccccd
    3314:	4000cccc 	.word	0x4000cccc
    3318:	9999999a 	.word	0x9999999a
    331c:	40019999 	.word	0x40019999
    3320:	66666666 	.word	0x66666666
    3324:	3ff66666 	.word	0x3ff66666
    3328:	cccccccd 	.word	0xcccccccd
    332c:	3ff4cccc 	.word	0x3ff4cccc
    3330:	00000000 	.word	0x00000000
    3334:	3ff80000 	.word	0x3ff80000
    3338:	9999999a 	.word	0x9999999a
    333c:	3ff99999 	.word	0x3ff99999
    3340:	9999999a 	.word	0x9999999a
    3344:	3ff19999 	.word	0x3ff19999
    3348:	33333333 	.word	0x33333333
    334c:	3ff33333 	.word	0x3ff33333
    3350:	cccccccd 	.word	0xcccccccd
    3354:	4000cccc 	.word	0x4000cccc
    3358:	9999999a 	.word	0x9999999a
    335c:	40019999 	.word	0x40019999
    3360:	66666666 	.word	0x66666666
    3364:	3ff66666 	.word	0x3ff66666
    3368:	cccccccd 	.word	0xcccccccd
    336c:	3ff4cccc 	.word	0x3ff4cccc
    3370:	00000000 	.word	0x00000000
    3374:	3ff80000 	.word	0x3ff80000
    3378:	9999999a 	.word	0x9999999a
    337c:	3ff99999 	.word	0x3ff99999
    3380:	9999999a 	.word	0x9999999a
    3384:	3ff19999 	.word	0x3ff19999
    3388:	33333333 	.word	0x33333333
    338c:	3ff33333 	.word	0x3ff33333
    3390:	cccccccd 	.word	0xcccccccd
    3394:	4000cccc 	.word	0x4000cccc
    3398:	9999999a 	.word	0x9999999a
    339c:	40019999 	.word	0x40019999
    33a0:	66666666 	.word	0x66666666
    33a4:	3ff66666 	.word	0x3ff66666
    33a8:	cccccccd 	.word	0xcccccccd
    33ac:	3ff4cccc 	.word	0x3ff4cccc
    33b0:	00000000 	.word	0x00000000
    33b4:	3ff80000 	.word	0x3ff80000
    33b8:	9999999a 	.word	0x9999999a
    33bc:	3ff99999 	.word	0x3ff99999
    33c0:	9999999a 	.word	0x9999999a
    33c4:	3ff19999 	.word	0x3ff19999
    33c8:	33333333 	.word	0x33333333
    33cc:	3ff33333 	.word	0x3ff33333
    33d0:	cccccccd 	.word	0xcccccccd
    33d4:	4000cccc 	.word	0x4000cccc
    33d8:	9999999a 	.word	0x9999999a
    33dc:	40019999 	.word	0x40019999
    33e0:	66666666 	.word	0x66666666
    33e4:	3ff66666 	.word	0x3ff66666
    33e8:	cccccccd 	.word	0xcccccccd
    33ec:	3ff4cccc 	.word	0x3ff4cccc
    33f0:	00000000 	.word	0x00000000
    33f4:	3ff80000 	.word	0x3ff80000
    33f8:	9999999a 	.word	0x9999999a
    33fc:	3ff99999 	.word	0x3ff99999
    3400:	9999999a 	.word	0x9999999a
    3404:	3ff19999 	.word	0x3ff19999
    3408:	33333333 	.word	0x33333333
    340c:	3ff33333 	.word	0x3ff33333
    3410:	cccccccd 	.word	0xcccccccd
    3414:	4000cccc 	.word	0x4000cccc
    3418:	9999999a 	.word	0x9999999a
    341c:	40019999 	.word	0x40019999
    3420:	66666666 	.word	0x66666666
    3424:	3ff66666 	.word	0x3ff66666
    3428:	cccccccd 	.word	0xcccccccd
    342c:	3ff4cccc 	.word	0x3ff4cccc
    3430:	00000000 	.word	0x00000000
    3434:	3ff80000 	.word	0x3ff80000
    3438:	9999999a 	.word	0x9999999a
    343c:	3ff99999 	.word	0x3ff99999
    3440:	9999999a 	.word	0x9999999a
    3444:	3ff19999 	.word	0x3ff19999
    3448:	33333333 	.word	0x33333333
    344c:	3ff33333 	.word	0x3ff33333
    3450:	cccccccd 	.word	0xcccccccd
    3454:	4000cccc 	.word	0x4000cccc
    3458:	9999999a 	.word	0x9999999a
    345c:	40019999 	.word	0x40019999
    3460:	66666666 	.word	0x66666666
    3464:	3ff66666 	.word	0x3ff66666
    3468:	cccccccd 	.word	0xcccccccd
    346c:	3ff4cccc 	.word	0x3ff4cccc
    3470:	00000000 	.word	0x00000000
    3474:	3ff80000 	.word	0x3ff80000
    3478:	9999999a 	.word	0x9999999a
    347c:	3ff99999 	.word	0x3ff99999
    3480:	9999999a 	.word	0x9999999a
    3484:	3ff19999 	.word	0x3ff19999
    3488:	33333333 	.word	0x33333333
    348c:	3ff33333 	.word	0x3ff33333
    3490:	cccccccd 	.word	0xcccccccd
    3494:	4000cccc 	.word	0x4000cccc
    3498:	9999999a 	.word	0x9999999a
    349c:	40019999 	.word	0x40019999
    34a0:	66666666 	.word	0x66666666
    34a4:	3ff66666 	.word	0x3ff66666
    34a8:	cccccccd 	.word	0xcccccccd
    34ac:	3ff4cccc 	.word	0x3ff4cccc
    34b0:	00000000 	.word	0x00000000
    34b4:	3ff80000 	.word	0x3ff80000
    34b8:	9999999a 	.word	0x9999999a
    34bc:	3ff99999 	.word	0x3ff99999
    34c0:	9999999a 	.word	0x9999999a
    34c4:	3ff19999 	.word	0x3ff19999
    34c8:	33333333 	.word	0x33333333
    34cc:	3ff33333 	.word	0x3ff33333
    34d0:	cccccccd 	.word	0xcccccccd
    34d4:	4000cccc 	.word	0x4000cccc
    34d8:	9999999a 	.word	0x9999999a
    34dc:	40019999 	.word	0x40019999
    34e0:	66666666 	.word	0x66666666
    34e4:	3ff66666 	.word	0x3ff66666
    34e8:	cccccccd 	.word	0xcccccccd
    34ec:	3ff4cccc 	.word	0x3ff4cccc
    34f0:	00000000 	.word	0x00000000
    34f4:	3ff80000 	.word	0x3ff80000
    34f8:	9999999a 	.word	0x9999999a
    34fc:	3ff99999 	.word	0x3ff99999
    3500:	9999999a 	.word	0x9999999a
    3504:	3ff19999 	.word	0x3ff19999
    3508:	33333333 	.word	0x33333333
    350c:	3ff33333 	.word	0x3ff33333
    3510:	cccccccd 	.word	0xcccccccd
    3514:	4000cccc 	.word	0x4000cccc
    3518:	9999999a 	.word	0x9999999a
    351c:	40019999 	.word	0x40019999
    3520:	66666666 	.word	0x66666666
    3524:	3ff66666 	.word	0x3ff66666
    3528:	cccccccd 	.word	0xcccccccd
    352c:	3ff4cccc 	.word	0x3ff4cccc
    3530:	00000000 	.word	0x00000000
    3534:	3ff80000 	.word	0x3ff80000
    3538:	9999999a 	.word	0x9999999a
    353c:	3ff99999 	.word	0x3ff99999
    3540:	9999999a 	.word	0x9999999a
    3544:	3ff19999 	.word	0x3ff19999
    3548:	33333333 	.word	0x33333333
    354c:	3ff33333 	.word	0x3ff33333
    3550:	cccccccd 	.word	0xcccccccd
    3554:	4000cccc 	.word	0x4000cccc
    3558:	9999999a 	.word	0x9999999a
    355c:	40019999 	.word	0x40019999
    3560:	66666666 	.word	0x66666666
    3564:	3ff66666 	.word	0x3ff66666
    3568:	cccccccd 	.word	0xcccccccd
    356c:	3ff4cccc 	.word	0x3ff4cccc
    3570:	00000000 	.word	0x00000000
    3574:	3ff80000 	.word	0x3ff80000
    3578:	9999999a 	.word	0x9999999a
    357c:	3ff99999 	.word	0x3ff99999
    3580:	9999999a 	.word	0x9999999a
    3584:	3ff19999 	.word	0x3ff19999
    3588:	33333333 	.word	0x33333333
    358c:	3ff33333 	.word	0x3ff33333
    3590:	cccccccd 	.word	0xcccccccd
    3594:	4000cccc 	.word	0x4000cccc
    3598:	9999999a 	.word	0x9999999a
    359c:	40019999 	.word	0x40019999
    35a0:	66666666 	.word	0x66666666
    35a4:	3ff66666 	.word	0x3ff66666
    35a8:	cccccccd 	.word	0xcccccccd
    35ac:	3ff4cccc 	.word	0x3ff4cccc
    35b0:	00000000 	.word	0x00000000
    35b4:	3ff80000 	.word	0x3ff80000
    35b8:	9999999a 	.word	0x9999999a
    35bc:	3ff99999 	.word	0x3ff99999
    35c0:	9999999a 	.word	0x9999999a
    35c4:	3ff19999 	.word	0x3ff19999
    35c8:	33333333 	.word	0x33333333
    35cc:	3ff33333 	.word	0x3ff33333
    35d0:	cccccccd 	.word	0xcccccccd
    35d4:	4000cccc 	.word	0x4000cccc
    35d8:	9999999a 	.word	0x9999999a
    35dc:	40019999 	.word	0x40019999
    35e0:	66666666 	.word	0x66666666
    35e4:	3ff66666 	.word	0x3ff66666
    35e8:	cccccccd 	.word	0xcccccccd
    35ec:	3ff4cccc 	.word	0x3ff4cccc
    35f0:	00000000 	.word	0x00000000
    35f4:	3ff80000 	.word	0x3ff80000
    35f8:	9999999a 	.word	0x9999999a
    35fc:	3ff99999 	.word	0x3ff99999
    3600:	9999999a 	.word	0x9999999a
    3604:	3ff19999 	.word	0x3ff19999
    3608:	33333333 	.word	0x33333333
    360c:	3ff33333 	.word	0x3ff33333
    3610:	cccccccd 	.word	0xcccccccd
    3614:	4000cccc 	.word	0x4000cccc
    3618:	9999999a 	.word	0x9999999a
    361c:	40019999 	.word	0x40019999
    3620:	66666666 	.word	0x66666666
    3624:	3ff66666 	.word	0x3ff66666
    3628:	cccccccd 	.word	0xcccccccd
    362c:	3ff4cccc 	.word	0x3ff4cccc
    3630:	00000000 	.word	0x00000000
    3634:	3ff80000 	.word	0x3ff80000
    3638:	9999999a 	.word	0x9999999a
    363c:	3ff99999 	.word	0x3ff99999
    3640:	9999999a 	.word	0x9999999a
    3644:	3ff19999 	.word	0x3ff19999
    3648:	33333333 	.word	0x33333333
    364c:	3ff33333 	.word	0x3ff33333
    3650:	cccccccd 	.word	0xcccccccd
    3654:	4000cccc 	.word	0x4000cccc
    3658:	9999999a 	.word	0x9999999a
    365c:	40019999 	.word	0x40019999
    3660:	66666666 	.word	0x66666666
    3664:	3ff66666 	.word	0x3ff66666
    3668:	cccccccd 	.word	0xcccccccd
    366c:	3ff4cccc 	.word	0x3ff4cccc
    3670:	00000000 	.word	0x00000000
    3674:	3ff80000 	.word	0x3ff80000
    3678:	9999999a 	.word	0x9999999a
    367c:	3ff99999 	.word	0x3ff99999
    3680:	9999999a 	.word	0x9999999a
    3684:	3ff19999 	.word	0x3ff19999
    3688:	33333333 	.word	0x33333333
    368c:	3ff33333 	.word	0x3ff33333
    3690:	cccccccd 	.word	0xcccccccd
    3694:	4000cccc 	.word	0x4000cccc
    3698:	9999999a 	.word	0x9999999a
    369c:	40019999 	.word	0x40019999
    36a0:	66666666 	.word	0x66666666
    36a4:	3ff66666 	.word	0x3ff66666
    36a8:	cccccccd 	.word	0xcccccccd
    36ac:	3ff4cccc 	.word	0x3ff4cccc
    36b0:	00000000 	.word	0x00000000
    36b4:	3ff80000 	.word	0x3ff80000
    36b8:	9999999a 	.word	0x9999999a
    36bc:	3ff99999 	.word	0x3ff99999
    36c0:	9999999a 	.word	0x9999999a
    36c4:	3ff19999 	.word	0x3ff19999
    36c8:	33333333 	.word	0x33333333
    36cc:	3ff33333 	.word	0x3ff33333
    36d0:	cccccccd 	.word	0xcccccccd
    36d4:	4000cccc 	.word	0x4000cccc
    36d8:	9999999a 	.word	0x9999999a
    36dc:	40019999 	.word	0x40019999
    36e0:	66666666 	.word	0x66666666
    36e4:	3ff66666 	.word	0x3ff66666
    36e8:	cccccccd 	.word	0xcccccccd
    36ec:	3ff4cccc 	.word	0x3ff4cccc
    36f0:	00000000 	.word	0x00000000
    36f4:	3ff80000 	.word	0x3ff80000
    36f8:	9999999a 	.word	0x9999999a
    36fc:	3ff99999 	.word	0x3ff99999
    3700:	9999999a 	.word	0x9999999a
    3704:	3ff19999 	.word	0x3ff19999
    3708:	33333333 	.word	0x33333333
    370c:	3ff33333 	.word	0x3ff33333
    3710:	cccccccd 	.word	0xcccccccd
    3714:	4000cccc 	.word	0x4000cccc
    3718:	9999999a 	.word	0x9999999a
    371c:	40019999 	.word	0x40019999
    3720:	66666666 	.word	0x66666666
    3724:	3ff66666 	.word	0x3ff66666
    3728:	cccccccd 	.word	0xcccccccd
    372c:	3ff4cccc 	.word	0x3ff4cccc
    3730:	00000000 	.word	0x00000000
    3734:	3ff80000 	.word	0x3ff80000
    3738:	9999999a 	.word	0x9999999a
    373c:	3ff99999 	.word	0x3ff99999
    3740:	9999999a 	.word	0x9999999a
    3744:	3ff19999 	.word	0x3ff19999
    3748:	33333333 	.word	0x33333333
    374c:	3ff33333 	.word	0x3ff33333
    3750:	cccccccd 	.word	0xcccccccd
    3754:	4000cccc 	.word	0x4000cccc
    3758:	9999999a 	.word	0x9999999a
    375c:	40019999 	.word	0x40019999
    3760:	66666666 	.word	0x66666666
    3764:	3ff66666 	.word	0x3ff66666
    3768:	cccccccd 	.word	0xcccccccd
    376c:	3ff4cccc 	.word	0x3ff4cccc
    3770:	00000000 	.word	0x00000000
    3774:	3ff80000 	.word	0x3ff80000
    3778:	9999999a 	.word	0x9999999a
    377c:	3ff99999 	.word	0x3ff99999
    3780:	9999999a 	.word	0x9999999a
    3784:	3ff19999 	.word	0x3ff19999
    3788:	33333333 	.word	0x33333333
    378c:	3ff33333 	.word	0x3ff33333
    3790:	cccccccd 	.word	0xcccccccd
    3794:	4000cccc 	.word	0x4000cccc
    3798:	9999999a 	.word	0x9999999a
    379c:	40019999 	.word	0x40019999
    37a0:	66666666 	.word	0x66666666
    37a4:	3ff66666 	.word	0x3ff66666
    37a8:	cccccccd 	.word	0xcccccccd
    37ac:	3ff4cccc 	.word	0x3ff4cccc
    37b0:	00000000 	.word	0x00000000
    37b4:	3ff80000 	.word	0x3ff80000
    37b8:	9999999a 	.word	0x9999999a
    37bc:	3ff99999 	.word	0x3ff99999
    37c0:	9999999a 	.word	0x9999999a
    37c4:	3ff19999 	.word	0x3ff19999
    37c8:	33333333 	.word	0x33333333
    37cc:	3ff33333 	.word	0x3ff33333
    37d0:	cccccccd 	.word	0xcccccccd
    37d4:	4000cccc 	.word	0x4000cccc
    37d8:	9999999a 	.word	0x9999999a
    37dc:	40019999 	.word	0x40019999
    37e0:	66666666 	.word	0x66666666
    37e4:	3ff66666 	.word	0x3ff66666
    37e8:	cccccccd 	.word	0xcccccccd
    37ec:	3ff4cccc 	.word	0x3ff4cccc
    37f0:	00000000 	.word	0x00000000
    37f4:	3ff80000 	.word	0x3ff80000
    37f8:	9999999a 	.word	0x9999999a
    37fc:	3ff99999 	.word	0x3ff99999
    3800:	9999999a 	.word	0x9999999a
    3804:	3ff19999 	.word	0x3ff19999
    3808:	33333333 	.word	0x33333333
    380c:	3ff33333 	.word	0x3ff33333
    3810:	cccccccd 	.word	0xcccccccd
    3814:	4000cccc 	.word	0x4000cccc
    3818:	9999999a 	.word	0x9999999a
    381c:	40019999 	.word	0x40019999
    3820:	66666666 	.word	0x66666666
    3824:	3ff66666 	.word	0x3ff66666
    3828:	cccccccd 	.word	0xcccccccd
    382c:	3ff4cccc 	.word	0x3ff4cccc
    3830:	00000000 	.word	0x00000000
    3834:	3ff80000 	.word	0x3ff80000
    3838:	9999999a 	.word	0x9999999a
    383c:	3ff99999 	.word	0x3ff99999
    3840:	9999999a 	.word	0x9999999a
    3844:	3ff19999 	.word	0x3ff19999
    3848:	33333333 	.word	0x33333333
    384c:	3ff33333 	.word	0x3ff33333
    3850:	cccccccd 	.word	0xcccccccd
    3854:	4000cccc 	.word	0x4000cccc
    3858:	9999999a 	.word	0x9999999a
    385c:	40019999 	.word	0x40019999
    3860:	66666666 	.word	0x66666666
    3864:	3ff66666 	.word	0x3ff66666
    3868:	cccccccd 	.word	0xcccccccd
    386c:	3ff4cccc 	.word	0x3ff4cccc
    3870:	00000000 	.word	0x00000000
    3874:	3ff80000 	.word	0x3ff80000
    3878:	9999999a 	.word	0x9999999a
    387c:	3ff99999 	.word	0x3ff99999
    3880:	9999999a 	.word	0x9999999a
    3884:	3ff19999 	.word	0x3ff19999
    3888:	33333333 	.word	0x33333333
    388c:	3ff33333 	.word	0x3ff33333
    3890:	cccccccd 	.word	0xcccccccd
    3894:	4000cccc 	.word	0x4000cccc
    3898:	9999999a 	.word	0x9999999a
    389c:	40019999 	.word	0x40019999
    38a0:	66666666 	.word	0x66666666
    38a4:	3ff66666 	.word	0x3ff66666
    38a8:	cccccccd 	.word	0xcccccccd
    38ac:	3ff4cccc 	.word	0x3ff4cccc
    38b0:	00000000 	.word	0x00000000
    38b4:	3ff80000 	.word	0x3ff80000
    38b8:	9999999a 	.word	0x9999999a
    38bc:	3ff99999 	.word	0x3ff99999
    38c0:	9999999a 	.word	0x9999999a
    38c4:	3ff19999 	.word	0x3ff19999
    38c8:	33333333 	.word	0x33333333
    38cc:	3ff33333 	.word	0x3ff33333
    38d0:	cccccccd 	.word	0xcccccccd
    38d4:	4000cccc 	.word	0x4000cccc
    38d8:	9999999a 	.word	0x9999999a
    38dc:	40019999 	.word	0x40019999
    38e0:	66666666 	.word	0x66666666
    38e4:	3ff66666 	.word	0x3ff66666
    38e8:	cccccccd 	.word	0xcccccccd
    38ec:	3ff4cccc 	.word	0x3ff4cccc
    38f0:	00000000 	.word	0x00000000
    38f4:	3ff80000 	.word	0x3ff80000
    38f8:	9999999a 	.word	0x9999999a
    38fc:	3ff99999 	.word	0x3ff99999
    3900:	9999999a 	.word	0x9999999a
    3904:	3ff19999 	.word	0x3ff19999
    3908:	33333333 	.word	0x33333333
    390c:	3ff33333 	.word	0x3ff33333
    3910:	cccccccd 	.word	0xcccccccd
    3914:	4000cccc 	.word	0x4000cccc
    3918:	9999999a 	.word	0x9999999a
    391c:	40019999 	.word	0x40019999
    3920:	66666666 	.word	0x66666666
    3924:	3ff66666 	.word	0x3ff66666
    3928:	cccccccd 	.word	0xcccccccd
    392c:	3ff4cccc 	.word	0x3ff4cccc
    3930:	00000000 	.word	0x00000000
    3934:	3ff80000 	.word	0x3ff80000
    3938:	9999999a 	.word	0x9999999a
    393c:	3ff99999 	.word	0x3ff99999
    3940:	9999999a 	.word	0x9999999a
    3944:	3ff19999 	.word	0x3ff19999
    3948:	33333333 	.word	0x33333333
    394c:	3ff33333 	.word	0x3ff33333
    3950:	cccccccd 	.word	0xcccccccd
    3954:	4000cccc 	.word	0x4000cccc
    3958:	9999999a 	.word	0x9999999a
    395c:	40019999 	.word	0x40019999
    3960:	66666666 	.word	0x66666666
    3964:	3ff66666 	.word	0x3ff66666
    3968:	cccccccd 	.word	0xcccccccd
    396c:	3ff4cccc 	.word	0x3ff4cccc
    3970:	00000000 	.word	0x00000000
    3974:	3ff80000 	.word	0x3ff80000
    3978:	9999999a 	.word	0x9999999a
    397c:	3ff99999 	.word	0x3ff99999
    3980:	9999999a 	.word	0x9999999a
    3984:	3ff19999 	.word	0x3ff19999
    3988:	33333333 	.word	0x33333333
    398c:	3ff33333 	.word	0x3ff33333
    3990:	cccccccd 	.word	0xcccccccd
    3994:	4000cccc 	.word	0x4000cccc
    3998:	9999999a 	.word	0x9999999a
    399c:	40019999 	.word	0x40019999
    39a0:	66666666 	.word	0x66666666
    39a4:	3ff66666 	.word	0x3ff66666
    39a8:	cccccccd 	.word	0xcccccccd
    39ac:	3ff4cccc 	.word	0x3ff4cccc
    39b0:	00000000 	.word	0x00000000
    39b4:	3ff80000 	.word	0x3ff80000
    39b8:	9999999a 	.word	0x9999999a
    39bc:	3ff99999 	.word	0x3ff99999
    39c0:	9999999a 	.word	0x9999999a
    39c4:	3ff19999 	.word	0x3ff19999
    39c8:	33333333 	.word	0x33333333
    39cc:	3ff33333 	.word	0x3ff33333
    39d0:	cccccccd 	.word	0xcccccccd
    39d4:	4000cccc 	.word	0x4000cccc
    39d8:	9999999a 	.word	0x9999999a
    39dc:	40019999 	.word	0x40019999
    39e0:	66666666 	.word	0x66666666
    39e4:	3ff66666 	.word	0x3ff66666
    39e8:	cccccccd 	.word	0xcccccccd
    39ec:	3ff4cccc 	.word	0x3ff4cccc
    39f0:	00000000 	.word	0x00000000
    39f4:	3ff80000 	.word	0x3ff80000
    39f8:	9999999a 	.word	0x9999999a
    39fc:	3ff99999 	.word	0x3ff99999
    3a00:	9999999a 	.word	0x9999999a
    3a04:	3ff19999 	.word	0x3ff19999
    3a08:	33333333 	.word	0x33333333
    3a0c:	3ff33333 	.word	0x3ff33333
    3a10:	cccccccd 	.word	0xcccccccd
    3a14:	4000cccc 	.word	0x4000cccc
    3a18:	9999999a 	.word	0x9999999a
    3a1c:	40019999 	.word	0x40019999
    3a20:	66666666 	.word	0x66666666
    3a24:	3ff66666 	.word	0x3ff66666
    3a28:	cccccccd 	.word	0xcccccccd
    3a2c:	3ff4cccc 	.word	0x3ff4cccc
    3a30:	00000000 	.word	0x00000000
    3a34:	3ff80000 	.word	0x3ff80000
    3a38:	9999999a 	.word	0x9999999a
    3a3c:	3ff99999 	.word	0x3ff99999
    3a40:	9999999a 	.word	0x9999999a
    3a44:	3ff19999 	.word	0x3ff19999
    3a48:	33333333 	.word	0x33333333
    3a4c:	3ff33333 	.word	0x3ff33333
    3a50:	cccccccd 	.word	0xcccccccd
    3a54:	4000cccc 	.word	0x4000cccc
    3a58:	9999999a 	.word	0x9999999a
    3a5c:	40019999 	.word	0x40019999
    3a60:	66666666 	.word	0x66666666
    3a64:	3ff66666 	.word	0x3ff66666
    3a68:	cccccccd 	.word	0xcccccccd
    3a6c:	3ff4cccc 	.word	0x3ff4cccc
    3a70:	00000000 	.word	0x00000000
    3a74:	3ff80000 	.word	0x3ff80000
    3a78:	9999999a 	.word	0x9999999a
    3a7c:	3ff99999 	.word	0x3ff99999
    3a80:	9999999a 	.word	0x9999999a
    3a84:	3ff19999 	.word	0x3ff19999
    3a88:	33333333 	.word	0x33333333
    3a8c:	3ff33333 	.word	0x3ff33333
    3a90:	cccccccd 	.word	0xcccccccd
    3a94:	4000cccc 	.word	0x4000cccc
    3a98:	9999999a 	.word	0x9999999a
    3a9c:	40019999 	.word	0x40019999
    3aa0:	66666666 	.word	0x66666666
    3aa4:	3ff66666 	.word	0x3ff66666
    3aa8:	cccccccd 	.word	0xcccccccd
    3aac:	3ff4cccc 	.word	0x3ff4cccc
    3ab0:	00000000 	.word	0x00000000
    3ab4:	3ff80000 	.word	0x3ff80000
    3ab8:	9999999a 	.word	0x9999999a
    3abc:	3ff99999 	.word	0x3ff99999
    3ac0:	9999999a 	.word	0x9999999a
    3ac4:	3ff19999 	.word	0x3ff19999
    3ac8:	33333333 	.word	0x33333333
    3acc:	3ff33333 	.word	0x3ff33333
    3ad0:	cccccccd 	.word	0xcccccccd
    3ad4:	4000cccc 	.word	0x4000cccc
    3ad8:	9999999a 	.word	0x9999999a
    3adc:	40019999 	.word	0x40019999
    3ae0:	66666666 	.word	0x66666666
    3ae4:	3ff66666 	.word	0x3ff66666
    3ae8:	cccccccd 	.word	0xcccccccd
    3aec:	3ff4cccc 	.word	0x3ff4cccc
    3af0:	00000000 	.word	0x00000000
    3af4:	3ff80000 	.word	0x3ff80000
    3af8:	9999999a 	.word	0x9999999a
    3afc:	3ff99999 	.word	0x3ff99999
    3b00:	9999999a 	.word	0x9999999a
    3b04:	3ff19999 	.word	0x3ff19999
    3b08:	33333333 	.word	0x33333333
    3b0c:	3ff33333 	.word	0x3ff33333
    3b10:	cccccccd 	.word	0xcccccccd
    3b14:	4000cccc 	.word	0x4000cccc
    3b18:	9999999a 	.word	0x9999999a
    3b1c:	40019999 	.word	0x40019999
    3b20:	66666666 	.word	0x66666666
    3b24:	3ff66666 	.word	0x3ff66666
    3b28:	cccccccd 	.word	0xcccccccd
    3b2c:	3ff4cccc 	.word	0x3ff4cccc
    3b30:	00000000 	.word	0x00000000
    3b34:	3ff80000 	.word	0x3ff80000
    3b38:	9999999a 	.word	0x9999999a
    3b3c:	3ff99999 	.word	0x3ff99999
    3b40:	9999999a 	.word	0x9999999a
    3b44:	3ff19999 	.word	0x3ff19999
    3b48:	33333333 	.word	0x33333333
    3b4c:	3ff33333 	.word	0x3ff33333
    3b50:	cccccccd 	.word	0xcccccccd
    3b54:	4000cccc 	.word	0x4000cccc
    3b58:	9999999a 	.word	0x9999999a
    3b5c:	40019999 	.word	0x40019999
    3b60:	66666666 	.word	0x66666666
    3b64:	3ff66666 	.word	0x3ff66666
    3b68:	cccccccd 	.word	0xcccccccd
    3b6c:	3ff4cccc 	.word	0x3ff4cccc
    3b70:	00000000 	.word	0x00000000
    3b74:	3ff80000 	.word	0x3ff80000
    3b78:	9999999a 	.word	0x9999999a
    3b7c:	3ff99999 	.word	0x3ff99999
    3b80:	9999999a 	.word	0x9999999a
    3b84:	3ff19999 	.word	0x3ff19999
    3b88:	33333333 	.word	0x33333333
    3b8c:	3ff33333 	.word	0x3ff33333
    3b90:	cccccccd 	.word	0xcccccccd
    3b94:	4000cccc 	.word	0x4000cccc
    3b98:	9999999a 	.word	0x9999999a
    3b9c:	40019999 	.word	0x40019999
    3ba0:	66666666 	.word	0x66666666
    3ba4:	3ff66666 	.word	0x3ff66666
    3ba8:	cccccccd 	.word	0xcccccccd
    3bac:	3ff4cccc 	.word	0x3ff4cccc
    3bb0:	00000000 	.word	0x00000000
    3bb4:	3ff80000 	.word	0x3ff80000
    3bb8:	9999999a 	.word	0x9999999a
    3bbc:	3ff99999 	.word	0x3ff99999
    3bc0:	9999999a 	.word	0x9999999a
    3bc4:	3ff19999 	.word	0x3ff19999
    3bc8:	33333333 	.word	0x33333333
    3bcc:	3ff33333 	.word	0x3ff33333
    3bd0:	cccccccd 	.word	0xcccccccd
    3bd4:	4000cccc 	.word	0x4000cccc
    3bd8:	9999999a 	.word	0x9999999a
    3bdc:	40019999 	.word	0x40019999
    3be0:	66666666 	.word	0x66666666
    3be4:	3ff66666 	.word	0x3ff66666
    3be8:	cccccccd 	.word	0xcccccccd
    3bec:	3ff4cccc 	.word	0x3ff4cccc
    3bf0:	00000000 	.word	0x00000000
    3bf4:	3ff80000 	.word	0x3ff80000
    3bf8:	9999999a 	.word	0x9999999a
    3bfc:	3ff99999 	.word	0x3ff99999
    3c00:	9999999a 	.word	0x9999999a
    3c04:	3ff19999 	.word	0x3ff19999
    3c08:	33333333 	.word	0x33333333
    3c0c:	3ff33333 	.word	0x3ff33333
    3c10:	cccccccd 	.word	0xcccccccd
    3c14:	4000cccc 	.word	0x4000cccc
    3c18:	9999999a 	.word	0x9999999a
    3c1c:	40019999 	.word	0x40019999
    3c20:	66666666 	.word	0x66666666
    3c24:	3ff66666 	.word	0x3ff66666
    3c28:	cccccccd 	.word	0xcccccccd
    3c2c:	3ff4cccc 	.word	0x3ff4cccc
    3c30:	00000000 	.word	0x00000000
    3c34:	3ff80000 	.word	0x3ff80000
    3c38:	9999999a 	.word	0x9999999a
    3c3c:	3ff99999 	.word	0x3ff99999
    3c40:	9999999a 	.word	0x9999999a
    3c44:	3ff19999 	.word	0x3ff19999
    3c48:	33333333 	.word	0x33333333
    3c4c:	3ff33333 	.word	0x3ff33333
    3c50:	cccccccd 	.word	0xcccccccd
    3c54:	4000cccc 	.word	0x4000cccc
    3c58:	9999999a 	.word	0x9999999a
    3c5c:	40019999 	.word	0x40019999
    3c60:	66666666 	.word	0x66666666
    3c64:	3ff66666 	.word	0x3ff66666
    3c68:	cccccccd 	.word	0xcccccccd
    3c6c:	3ff4cccc 	.word	0x3ff4cccc
    3c70:	00000000 	.word	0x00000000
    3c74:	3ff80000 	.word	0x3ff80000
    3c78:	9999999a 	.word	0x9999999a
    3c7c:	3ff99999 	.word	0x3ff99999
    3c80:	9999999a 	.word	0x9999999a
    3c84:	3ff19999 	.word	0x3ff19999
    3c88:	33333333 	.word	0x33333333
    3c8c:	3ff33333 	.word	0x3ff33333
    3c90:	cccccccd 	.word	0xcccccccd
    3c94:	4000cccc 	.word	0x4000cccc
    3c98:	9999999a 	.word	0x9999999a
    3c9c:	40019999 	.word	0x40019999
    3ca0:	66666666 	.word	0x66666666
    3ca4:	3ff66666 	.word	0x3ff66666
    3ca8:	cccccccd 	.word	0xcccccccd
    3cac:	3ff4cccc 	.word	0x3ff4cccc
    3cb0:	00000000 	.word	0x00000000
    3cb4:	3ff80000 	.word	0x3ff80000
    3cb8:	9999999a 	.word	0x9999999a
    3cbc:	3ff99999 	.word	0x3ff99999
    3cc0:	9999999a 	.word	0x9999999a
    3cc4:	3ff19999 	.word	0x3ff19999
    3cc8:	33333333 	.word	0x33333333
    3ccc:	3ff33333 	.word	0x3ff33333
    3cd0:	cccccccd 	.word	0xcccccccd
    3cd4:	4000cccc 	.word	0x4000cccc
    3cd8:	9999999a 	.word	0x9999999a
    3cdc:	40019999 	.word	0x40019999
    3ce0:	66666666 	.word	0x66666666
    3ce4:	3ff66666 	.word	0x3ff66666
    3ce8:	cccccccd 	.word	0xcccccccd
    3cec:	3ff4cccc 	.word	0x3ff4cccc
    3cf0:	00000000 	.word	0x00000000
    3cf4:	3ff80000 	.word	0x3ff80000
    3cf8:	9999999a 	.word	0x9999999a
    3cfc:	3ff99999 	.word	0x3ff99999
    3d00:	9999999a 	.word	0x9999999a
    3d04:	3ff19999 	.word	0x3ff19999
    3d08:	33333333 	.word	0x33333333
    3d0c:	3ff33333 	.word	0x3ff33333
    3d10:	cccccccd 	.word	0xcccccccd
    3d14:	4000cccc 	.word	0x4000cccc
    3d18:	9999999a 	.word	0x9999999a
    3d1c:	40019999 	.word	0x40019999
    3d20:	66666666 	.word	0x66666666
    3d24:	3ff66666 	.word	0x3ff66666
    3d28:	cccccccd 	.word	0xcccccccd
    3d2c:	3ff4cccc 	.word	0x3ff4cccc
    3d30:	00000000 	.word	0x00000000
    3d34:	3ff80000 	.word	0x3ff80000
    3d38:	9999999a 	.word	0x9999999a
    3d3c:	3ff99999 	.word	0x3ff99999
    3d40:	9999999a 	.word	0x9999999a
    3d44:	3ff19999 	.word	0x3ff19999
    3d48:	33333333 	.word	0x33333333
    3d4c:	3ff33333 	.word	0x3ff33333
    3d50:	cccccccd 	.word	0xcccccccd
    3d54:	4000cccc 	.word	0x4000cccc
    3d58:	9999999a 	.word	0x9999999a
    3d5c:	40019999 	.word	0x40019999
    3d60:	66666666 	.word	0x66666666
    3d64:	3ff66666 	.word	0x3ff66666
    3d68:	cccccccd 	.word	0xcccccccd
    3d6c:	3ff4cccc 	.word	0x3ff4cccc
    3d70:	00000000 	.word	0x00000000
    3d74:	3ff80000 	.word	0x3ff80000
    3d78:	9999999a 	.word	0x9999999a
    3d7c:	3ff99999 	.word	0x3ff99999
    3d80:	9999999a 	.word	0x9999999a
    3d84:	3ff19999 	.word	0x3ff19999
    3d88:	33333333 	.word	0x33333333
    3d8c:	3ff33333 	.word	0x3ff33333
    3d90:	cccccccd 	.word	0xcccccccd
    3d94:	4000cccc 	.word	0x4000cccc
    3d98:	9999999a 	.word	0x9999999a
    3d9c:	40019999 	.word	0x40019999
    3da0:	66666666 	.word	0x66666666
    3da4:	3ff66666 	.word	0x3ff66666
    3da8:	cccccccd 	.word	0xcccccccd
    3dac:	3ff4cccc 	.word	0x3ff4cccc
    3db0:	00000000 	.word	0x00000000
    3db4:	3ff80000 	.word	0x3ff80000
    3db8:	9999999a 	.word	0x9999999a
    3dbc:	3ff99999 	.word	0x3ff99999
    3dc0:	9999999a 	.word	0x9999999a
    3dc4:	3ff19999 	.word	0x3ff19999
    3dc8:	33333333 	.word	0x33333333
    3dcc:	3ff33333 	.word	0x3ff33333
    3dd0:	cccccccd 	.word	0xcccccccd
    3dd4:	4000cccc 	.word	0x4000cccc
    3dd8:	9999999a 	.word	0x9999999a
    3ddc:	40019999 	.word	0x40019999
    3de0:	66666666 	.word	0x66666666
    3de4:	3ff66666 	.word	0x3ff66666
    3de8:	cccccccd 	.word	0xcccccccd
    3dec:	3ff4cccc 	.word	0x3ff4cccc
    3df0:	00000000 	.word	0x00000000
    3df4:	3ff80000 	.word	0x3ff80000
    3df8:	9999999a 	.word	0x9999999a
    3dfc:	3ff99999 	.word	0x3ff99999
    3e00:	9999999a 	.word	0x9999999a
    3e04:	3ff19999 	.word	0x3ff19999
    3e08:	33333333 	.word	0x33333333
    3e0c:	3ff33333 	.word	0x3ff33333
    3e10:	cccccccd 	.word	0xcccccccd
    3e14:	4000cccc 	.word	0x4000cccc
    3e18:	9999999a 	.word	0x9999999a
    3e1c:	40019999 	.word	0x40019999
    3e20:	66666666 	.word	0x66666666
    3e24:	3ff66666 	.word	0x3ff66666
    3e28:	cccccccd 	.word	0xcccccccd
    3e2c:	3ff4cccc 	.word	0x3ff4cccc
    3e30:	00000000 	.word	0x00000000
    3e34:	3ff80000 	.word	0x3ff80000
    3e38:	9999999a 	.word	0x9999999a
    3e3c:	3ff99999 	.word	0x3ff99999
    3e40:	9999999a 	.word	0x9999999a
    3e44:	3ff19999 	.word	0x3ff19999
    3e48:	33333333 	.word	0x33333333
    3e4c:	3ff33333 	.word	0x3ff33333
    3e50:	cccccccd 	.word	0xcccccccd
    3e54:	4000cccc 	.word	0x4000cccc
    3e58:	9999999a 	.word	0x9999999a
    3e5c:	40019999 	.word	0x40019999
    3e60:	66666666 	.word	0x66666666
    3e64:	3ff66666 	.word	0x3ff66666
    3e68:	cccccccd 	.word	0xcccccccd
    3e6c:	3ff4cccc 	.word	0x3ff4cccc
    3e70:	00000000 	.word	0x00000000
    3e74:	3ff80000 	.word	0x3ff80000
    3e78:	9999999a 	.word	0x9999999a
    3e7c:	3ff99999 	.word	0x3ff99999
    3e80:	9999999a 	.word	0x9999999a
    3e84:	3ff19999 	.word	0x3ff19999
    3e88:	33333333 	.word	0x33333333
    3e8c:	3ff33333 	.word	0x3ff33333
    3e90:	cccccccd 	.word	0xcccccccd
    3e94:	4000cccc 	.word	0x4000cccc
    3e98:	9999999a 	.word	0x9999999a
    3e9c:	40019999 	.word	0x40019999
    3ea0:	66666666 	.word	0x66666666
    3ea4:	3ff66666 	.word	0x3ff66666
    3ea8:	cccccccd 	.word	0xcccccccd
    3eac:	3ff4cccc 	.word	0x3ff4cccc
    3eb0:	00000000 	.word	0x00000000
    3eb4:	3ff80000 	.word	0x3ff80000
    3eb8:	9999999a 	.word	0x9999999a
    3ebc:	3ff99999 	.word	0x3ff99999
    3ec0:	9999999a 	.word	0x9999999a
    3ec4:	3ff19999 	.word	0x3ff19999
    3ec8:	33333333 	.word	0x33333333
    3ecc:	3ff33333 	.word	0x3ff33333
    3ed0:	cccccccd 	.word	0xcccccccd
    3ed4:	4000cccc 	.word	0x4000cccc
    3ed8:	9999999a 	.word	0x9999999a
    3edc:	40019999 	.word	0x40019999
    3ee0:	66666666 	.word	0x66666666
    3ee4:	3ff66666 	.word	0x3ff66666
    3ee8:	cccccccd 	.word	0xcccccccd
    3eec:	3ff4cccc 	.word	0x3ff4cccc
    3ef0:	00000000 	.word	0x00000000
    3ef4:	3ff80000 	.word	0x3ff80000
    3ef8:	9999999a 	.word	0x9999999a
    3efc:	3ff99999 	.word	0x3ff99999
    3f00:	9999999a 	.word	0x9999999a
    3f04:	3ff19999 	.word	0x3ff19999
    3f08:	33333333 	.word	0x33333333
    3f0c:	3ff33333 	.word	0x3ff33333
    3f10:	cccccccd 	.word	0xcccccccd
    3f14:	4000cccc 	.word	0x4000cccc
    3f18:	9999999a 	.word	0x9999999a
    3f1c:	40019999 	.word	0x40019999
    3f20:	66666666 	.word	0x66666666
    3f24:	3ff66666 	.word	0x3ff66666
    3f28:	cccccccd 	.word	0xcccccccd
    3f2c:	3ff4cccc 	.word	0x3ff4cccc
    3f30:	00000000 	.word	0x00000000
    3f34:	3ff80000 	.word	0x3ff80000
    3f38:	9999999a 	.word	0x9999999a
    3f3c:	3ff99999 	.word	0x3ff99999
    3f40:	9999999a 	.word	0x9999999a
    3f44:	3ff19999 	.word	0x3ff19999
    3f48:	33333333 	.word	0x33333333
    3f4c:	3ff33333 	.word	0x3ff33333
    3f50:	cccccccd 	.word	0xcccccccd
    3f54:	4000cccc 	.word	0x4000cccc
    3f58:	9999999a 	.word	0x9999999a
    3f5c:	40019999 	.word	0x40019999
    3f60:	66666666 	.word	0x66666666
    3f64:	3ff66666 	.word	0x3ff66666
    3f68:	cccccccd 	.word	0xcccccccd
    3f6c:	3ff4cccc 	.word	0x3ff4cccc
    3f70:	00000000 	.word	0x00000000
    3f74:	3ff80000 	.word	0x3ff80000
    3f78:	9999999a 	.word	0x9999999a
    3f7c:	3ff99999 	.word	0x3ff99999
    3f80:	9999999a 	.word	0x9999999a
    3f84:	3ff19999 	.word	0x3ff19999
    3f88:	33333333 	.word	0x33333333
    3f8c:	3ff33333 	.word	0x3ff33333
    3f90:	cccccccd 	.word	0xcccccccd
    3f94:	4000cccc 	.word	0x4000cccc
    3f98:	9999999a 	.word	0x9999999a
    3f9c:	40019999 	.word	0x40019999
    3fa0:	66666666 	.word	0x66666666
    3fa4:	3ff66666 	.word	0x3ff66666
    3fa8:	cccccccd 	.word	0xcccccccd
    3fac:	3ff4cccc 	.word	0x3ff4cccc
    3fb0:	00000000 	.word	0x00000000
    3fb4:	3ff80000 	.word	0x3ff80000
    3fb8:	9999999a 	.word	0x9999999a
    3fbc:	3ff99999 	.word	0x3ff99999
    3fc0:	9999999a 	.word	0x9999999a
    3fc4:	3ff19999 	.word	0x3ff19999
    3fc8:	33333333 	.word	0x33333333
    3fcc:	3ff33333 	.word	0x3ff33333
    3fd0:	cccccccd 	.word	0xcccccccd
    3fd4:	4000cccc 	.word	0x4000cccc
    3fd8:	9999999a 	.word	0x9999999a
    3fdc:	40019999 	.word	0x40019999
    3fe0:	66666666 	.word	0x66666666
    3fe4:	3ff66666 	.word	0x3ff66666
    3fe8:	cccccccd 	.word	0xcccccccd
    3fec:	3ff4cccc 	.word	0x3ff4cccc
    3ff0:	00000000 	.word	0x00000000
    3ff4:	3ff80000 	.word	0x3ff80000
    3ff8:	9999999a 	.word	0x9999999a
    3ffc:	3ff99999 	.word	0x3ff99999
    4000:	9999999a 	.word	0x9999999a
    4004:	3ff19999 	.word	0x3ff19999
    4008:	33333333 	.word	0x33333333
    400c:	3ff33333 	.word	0x3ff33333
    4010:	cccccccd 	.word	0xcccccccd
    4014:	4000cccc 	.word	0x4000cccc
    4018:	9999999a 	.word	0x9999999a
    401c:	40019999 	.word	0x40019999
    4020:	66666666 	.word	0x66666666
    4024:	3ff66666 	.word	0x3ff66666
    4028:	cccccccd 	.word	0xcccccccd
    402c:	3ff4cccc 	.word	0x3ff4cccc
    4030:	00000000 	.word	0x00000000
    4034:	3ff80000 	.word	0x3ff80000
    4038:	9999999a 	.word	0x9999999a
    403c:	3ff99999 	.word	0x3ff99999
    4040:	9999999a 	.word	0x9999999a
    4044:	3ff19999 	.word	0x3ff19999
    4048:	33333333 	.word	0x33333333
    404c:	3ff33333 	.word	0x3ff33333
    4050:	cccccccd 	.word	0xcccccccd
    4054:	4000cccc 	.word	0x4000cccc
    4058:	9999999a 	.word	0x9999999a
    405c:	40019999 	.word	0x40019999
    4060:	66666666 	.word	0x66666666
    4064:	3ff66666 	.word	0x3ff66666
    4068:	cccccccd 	.word	0xcccccccd
    406c:	3ff4cccc 	.word	0x3ff4cccc
    4070:	00000000 	.word	0x00000000
    4074:	3ff80000 	.word	0x3ff80000
    4078:	9999999a 	.word	0x9999999a
    407c:	3ff99999 	.word	0x3ff99999
    4080:	9999999a 	.word	0x9999999a
    4084:	3ff19999 	.word	0x3ff19999
    4088:	33333333 	.word	0x33333333
    408c:	3ff33333 	.word	0x3ff33333
    4090:	cccccccd 	.word	0xcccccccd
    4094:	4000cccc 	.word	0x4000cccc
    4098:	9999999a 	.word	0x9999999a
    409c:	40019999 	.word	0x40019999
    40a0:	66666666 	.word	0x66666666
    40a4:	3ff66666 	.word	0x3ff66666
    40a8:	cccccccd 	.word	0xcccccccd
    40ac:	3ff4cccc 	.word	0x3ff4cccc
    40b0:	00000000 	.word	0x00000000
    40b4:	3ff80000 	.word	0x3ff80000
    40b8:	9999999a 	.word	0x9999999a
    40bc:	3ff99999 	.word	0x3ff99999
    40c0:	9999999a 	.word	0x9999999a
    40c4:	3ff19999 	.word	0x3ff19999
    40c8:	33333333 	.word	0x33333333
    40cc:	3ff33333 	.word	0x3ff33333
    40d0:	cccccccd 	.word	0xcccccccd
    40d4:	4000cccc 	.word	0x4000cccc
    40d8:	9999999a 	.word	0x9999999a
    40dc:	40019999 	.word	0x40019999
    40e0:	66666666 	.word	0x66666666
    40e4:	3ff66666 	.word	0x3ff66666
    40e8:	cccccccd 	.word	0xcccccccd
    40ec:	3ff4cccc 	.word	0x3ff4cccc
    40f0:	00000000 	.word	0x00000000
    40f4:	3ff80000 	.word	0x3ff80000
    40f8:	9999999a 	.word	0x9999999a
    40fc:	3ff99999 	.word	0x3ff99999
    4100:	9999999a 	.word	0x9999999a
    4104:	3ff19999 	.word	0x3ff19999
    4108:	33333333 	.word	0x33333333
    410c:	3ff33333 	.word	0x3ff33333
    4110:	cccccccd 	.word	0xcccccccd
    4114:	4000cccc 	.word	0x4000cccc
    4118:	9999999a 	.word	0x9999999a
    411c:	40019999 	.word	0x40019999
    4120:	66666666 	.word	0x66666666
    4124:	3ff66666 	.word	0x3ff66666
    4128:	cccccccd 	.word	0xcccccccd
    412c:	3ff4cccc 	.word	0x3ff4cccc
    4130:	00000000 	.word	0x00000000
    4134:	3ff80000 	.word	0x3ff80000
    4138:	9999999a 	.word	0x9999999a
    413c:	3ff99999 	.word	0x3ff99999
    4140:	9999999a 	.word	0x9999999a
    4144:	3ff19999 	.word	0x3ff19999
    4148:	33333333 	.word	0x33333333
    414c:	3ff33333 	.word	0x3ff33333
    4150:	cccccccd 	.word	0xcccccccd
    4154:	4000cccc 	.word	0x4000cccc
    4158:	9999999a 	.word	0x9999999a
    415c:	40019999 	.word	0x40019999
    4160:	66666666 	.word	0x66666666
    4164:	3ff66666 	.word	0x3ff66666
    4168:	cccccccd 	.word	0xcccccccd
    416c:	3ff4cccc 	.word	0x3ff4cccc
    4170:	00000000 	.word	0x00000000
    4174:	3ff80000 	.word	0x3ff80000
    4178:	9999999a 	.word	0x9999999a
    417c:	3ff99999 	.word	0x3ff99999
    4180:	9999999a 	.word	0x9999999a
    4184:	3ff19999 	.word	0x3ff19999
    4188:	33333333 	.word	0x33333333
    418c:	3ff33333 	.word	0x3ff33333
    4190:	cccccccd 	.word	0xcccccccd
    4194:	4000cccc 	.word	0x4000cccc
    4198:	9999999a 	.word	0x9999999a
    419c:	40019999 	.word	0x40019999
    41a0:	66666666 	.word	0x66666666
    41a4:	3ff66666 	.word	0x3ff66666
    41a8:	cccccccd 	.word	0xcccccccd
    41ac:	3ff4cccc 	.word	0x3ff4cccc
    41b0:	00000000 	.word	0x00000000
    41b4:	3ff80000 	.word	0x3ff80000
    41b8:	9999999a 	.word	0x9999999a
    41bc:	3ff99999 	.word	0x3ff99999
    41c0:	9999999a 	.word	0x9999999a
    41c4:	3ff19999 	.word	0x3ff19999
    41c8:	33333333 	.word	0x33333333
    41cc:	3ff33333 	.word	0x3ff33333
    41d0:	cccccccd 	.word	0xcccccccd
    41d4:	4000cccc 	.word	0x4000cccc
    41d8:	9999999a 	.word	0x9999999a
    41dc:	40019999 	.word	0x40019999
    41e0:	66666666 	.word	0x66666666
    41e4:	3ff66666 	.word	0x3ff66666
    41e8:	cccccccd 	.word	0xcccccccd
    41ec:	3ff4cccc 	.word	0x3ff4cccc
    41f0:	00000000 	.word	0x00000000
    41f4:	3ff80000 	.word	0x3ff80000
    41f8:	9999999a 	.word	0x9999999a
    41fc:	3ff99999 	.word	0x3ff99999
    4200:	9999999a 	.word	0x9999999a
    4204:	3ff19999 	.word	0x3ff19999
    4208:	33333333 	.word	0x33333333
    420c:	3ff33333 	.word	0x3ff33333
    4210:	cccccccd 	.word	0xcccccccd
    4214:	4000cccc 	.word	0x4000cccc
    4218:	9999999a 	.word	0x9999999a
    421c:	40019999 	.word	0x40019999
    4220:	66666666 	.word	0x66666666
    4224:	3ff66666 	.word	0x3ff66666
    4228:	cccccccd 	.word	0xcccccccd
    422c:	3ff4cccc 	.word	0x3ff4cccc
    4230:	00000000 	.word	0x00000000
    4234:	3ff80000 	.word	0x3ff80000
    4238:	9999999a 	.word	0x9999999a
    423c:	3ff99999 	.word	0x3ff99999
    4240:	9999999a 	.word	0x9999999a
    4244:	3ff19999 	.word	0x3ff19999
    4248:	33333333 	.word	0x33333333
    424c:	3ff33333 	.word	0x3ff33333
    4250:	cccccccd 	.word	0xcccccccd
    4254:	4000cccc 	.word	0x4000cccc
    4258:	9999999a 	.word	0x9999999a
    425c:	40019999 	.word	0x40019999
    4260:	66666666 	.word	0x66666666
    4264:	3ff66666 	.word	0x3ff66666
    4268:	cccccccd 	.word	0xcccccccd
    426c:	3ff4cccc 	.word	0x3ff4cccc
    4270:	00000000 	.word	0x00000000
    4274:	3ff80000 	.word	0x3ff80000
    4278:	9999999a 	.word	0x9999999a
    427c:	3ff99999 	.word	0x3ff99999
    4280:	9999999a 	.word	0x9999999a
    4284:	3ff19999 	.word	0x3ff19999
    4288:	33333333 	.word	0x33333333
    428c:	3ff33333 	.word	0x3ff33333
    4290:	cccccccd 	.word	0xcccccccd
    4294:	4000cccc 	.word	0x4000cccc
    4298:	9999999a 	.word	0x9999999a
    429c:	40019999 	.word	0x40019999
    42a0:	66666666 	.word	0x66666666
    42a4:	3ff66666 	.word	0x3ff66666
    42a8:	cccccccd 	.word	0xcccccccd
    42ac:	3ff4cccc 	.word	0x3ff4cccc
    42b0:	00000000 	.word	0x00000000
    42b4:	3ff80000 	.word	0x3ff80000
    42b8:	9999999a 	.word	0x9999999a
    42bc:	3ff99999 	.word	0x3ff99999
    42c0:	9999999a 	.word	0x9999999a
    42c4:	3ff19999 	.word	0x3ff19999
    42c8:	33333333 	.word	0x33333333
    42cc:	3ff33333 	.word	0x3ff33333
    42d0:	cccccccd 	.word	0xcccccccd
    42d4:	4000cccc 	.word	0x4000cccc
    42d8:	9999999a 	.word	0x9999999a
    42dc:	40019999 	.word	0x40019999
    42e0:	66666666 	.word	0x66666666
    42e4:	3ff66666 	.word	0x3ff66666
    42e8:	cccccccd 	.word	0xcccccccd
    42ec:	3ff4cccc 	.word	0x3ff4cccc
    42f0:	00000000 	.word	0x00000000
    42f4:	3ff80000 	.word	0x3ff80000
    42f8:	9999999a 	.word	0x9999999a
    42fc:	3ff99999 	.word	0x3ff99999
    4300:	9999999a 	.word	0x9999999a
    4304:	3ff19999 	.word	0x3ff19999
    4308:	33333333 	.word	0x33333333
    430c:	3ff33333 	.word	0x3ff33333
    4310:	cccccccd 	.word	0xcccccccd
    4314:	4000cccc 	.word	0x4000cccc
    4318:	9999999a 	.word	0x9999999a
    431c:	40019999 	.word	0x40019999
    4320:	66666666 	.word	0x66666666
    4324:	3ff66666 	.word	0x3ff66666
    4328:	cccccccd 	.word	0xcccccccd
    432c:	3ff4cccc 	.word	0x3ff4cccc
    4330:	00000000 	.word	0x00000000
    4334:	3ff80000 	.word	0x3ff80000
    4338:	9999999a 	.word	0x9999999a
    433c:	3ff99999 	.word	0x3ff99999
    4340:	9999999a 	.word	0x9999999a
    4344:	3ff19999 	.word	0x3ff19999
    4348:	33333333 	.word	0x33333333
    434c:	3ff33333 	.word	0x3ff33333
    4350:	cccccccd 	.word	0xcccccccd
    4354:	4000cccc 	.word	0x4000cccc
    4358:	9999999a 	.word	0x9999999a
    435c:	40019999 	.word	0x40019999
    4360:	66666666 	.word	0x66666666
    4364:	3ff66666 	.word	0x3ff66666
    4368:	cccccccd 	.word	0xcccccccd
    436c:	3ff4cccc 	.word	0x3ff4cccc
    4370:	00000000 	.word	0x00000000
    4374:	3ff80000 	.word	0x3ff80000
    4378:	9999999a 	.word	0x9999999a
    437c:	3ff99999 	.word	0x3ff99999
    4380:	9999999a 	.word	0x9999999a
    4384:	3ff19999 	.word	0x3ff19999
    4388:	33333333 	.word	0x33333333
    438c:	3ff33333 	.word	0x3ff33333
    4390:	cccccccd 	.word	0xcccccccd
    4394:	4000cccc 	.word	0x4000cccc
    4398:	9999999a 	.word	0x9999999a
    439c:	40019999 	.word	0x40019999
    43a0:	66666666 	.word	0x66666666
    43a4:	3ff66666 	.word	0x3ff66666
    43a8:	cccccccd 	.word	0xcccccccd
    43ac:	3ff4cccc 	.word	0x3ff4cccc
    43b0:	00000000 	.word	0x00000000
    43b4:	3ff80000 	.word	0x3ff80000
    43b8:	9999999a 	.word	0x9999999a
    43bc:	3ff99999 	.word	0x3ff99999
    43c0:	9999999a 	.word	0x9999999a
    43c4:	3ff19999 	.word	0x3ff19999
    43c8:	33333333 	.word	0x33333333
    43cc:	3ff33333 	.word	0x3ff33333
    43d0:	cccccccd 	.word	0xcccccccd
    43d4:	4000cccc 	.word	0x4000cccc
    43d8:	9999999a 	.word	0x9999999a
    43dc:	40019999 	.word	0x40019999
    43e0:	66666666 	.word	0x66666666
    43e4:	3ff66666 	.word	0x3ff66666
    43e8:	cccccccd 	.word	0xcccccccd
    43ec:	3ff4cccc 	.word	0x3ff4cccc
    43f0:	00000000 	.word	0x00000000
    43f4:	3ff80000 	.word	0x3ff80000
    43f8:	9999999a 	.word	0x9999999a
    43fc:	3ff99999 	.word	0x3ff99999
    4400:	9999999a 	.word	0x9999999a
    4404:	3ff19999 	.word	0x3ff19999
    4408:	33333333 	.word	0x33333333
    440c:	3ff33333 	.word	0x3ff33333
    4410:	cccccccd 	.word	0xcccccccd
    4414:	4000cccc 	.word	0x4000cccc
    4418:	9999999a 	.word	0x9999999a
    441c:	40019999 	.word	0x40019999
    4420:	66666666 	.word	0x66666666
    4424:	3ff66666 	.word	0x3ff66666
    4428:	cccccccd 	.word	0xcccccccd
    442c:	3ff4cccc 	.word	0x3ff4cccc
    4430:	00000000 	.word	0x00000000
    4434:	3ff80000 	.word	0x3ff80000
    4438:	9999999a 	.word	0x9999999a
    443c:	3ff99999 	.word	0x3ff99999
    4440:	9999999a 	.word	0x9999999a
    4444:	3ff19999 	.word	0x3ff19999
    4448:	33333333 	.word	0x33333333
    444c:	3ff33333 	.word	0x3ff33333
    4450:	cccccccd 	.word	0xcccccccd
    4454:	4000cccc 	.word	0x4000cccc
    4458:	9999999a 	.word	0x9999999a
    445c:	40019999 	.word	0x40019999
    4460:	66666666 	.word	0x66666666
    4464:	3ff66666 	.word	0x3ff66666
    4468:	cccccccd 	.word	0xcccccccd
    446c:	3ff4cccc 	.word	0x3ff4cccc
    4470:	00000000 	.word	0x00000000
    4474:	3ff80000 	.word	0x3ff80000
    4478:	9999999a 	.word	0x9999999a
    447c:	3ff99999 	.word	0x3ff99999
    4480:	9999999a 	.word	0x9999999a
    4484:	3ff19999 	.word	0x3ff19999
    4488:	33333333 	.word	0x33333333
    448c:	3ff33333 	.word	0x3ff33333
    4490:	cccccccd 	.word	0xcccccccd
    4494:	4000cccc 	.word	0x4000cccc
    4498:	9999999a 	.word	0x9999999a
    449c:	40019999 	.word	0x40019999
    44a0:	66666666 	.word	0x66666666
    44a4:	3ff66666 	.word	0x3ff66666
    44a8:	cccccccd 	.word	0xcccccccd
    44ac:	3ff4cccc 	.word	0x3ff4cccc
    44b0:	00000000 	.word	0x00000000
    44b4:	3ff80000 	.word	0x3ff80000
    44b8:	9999999a 	.word	0x9999999a
    44bc:	3ff99999 	.word	0x3ff99999
    44c0:	9999999a 	.word	0x9999999a
    44c4:	3ff19999 	.word	0x3ff19999
    44c8:	33333333 	.word	0x33333333
    44cc:	3ff33333 	.word	0x3ff33333
    44d0:	cccccccd 	.word	0xcccccccd
    44d4:	4000cccc 	.word	0x4000cccc
    44d8:	9999999a 	.word	0x9999999a
    44dc:	40019999 	.word	0x40019999
    44e0:	66666666 	.word	0x66666666
    44e4:	3ff66666 	.word	0x3ff66666
    44e8:	cccccccd 	.word	0xcccccccd
    44ec:	3ff4cccc 	.word	0x3ff4cccc
    44f0:	00000000 	.word	0x00000000
    44f4:	3ff80000 	.word	0x3ff80000
    44f8:	9999999a 	.word	0x9999999a
    44fc:	3ff99999 	.word	0x3ff99999
    4500:	9999999a 	.word	0x9999999a
    4504:	3ff19999 	.word	0x3ff19999
    4508:	33333333 	.word	0x33333333
    450c:	3ff33333 	.word	0x3ff33333
    4510:	cccccccd 	.word	0xcccccccd
    4514:	4000cccc 	.word	0x4000cccc
    4518:	9999999a 	.word	0x9999999a
    451c:	40019999 	.word	0x40019999
    4520:	66666666 	.word	0x66666666
    4524:	3ff66666 	.word	0x3ff66666
    4528:	cccccccd 	.word	0xcccccccd
    452c:	3ff4cccc 	.word	0x3ff4cccc
    4530:	00000000 	.word	0x00000000
    4534:	3ff80000 	.word	0x3ff80000
    4538:	9999999a 	.word	0x9999999a
    453c:	3ff99999 	.word	0x3ff99999
    4540:	9999999a 	.word	0x9999999a
    4544:	3ff19999 	.word	0x3ff19999
    4548:	33333333 	.word	0x33333333
    454c:	3ff33333 	.word	0x3ff33333
    4550:	cccccccd 	.word	0xcccccccd
    4554:	4000cccc 	.word	0x4000cccc
    4558:	9999999a 	.word	0x9999999a
    455c:	40019999 	.word	0x40019999
    4560:	66666666 	.word	0x66666666
    4564:	3ff66666 	.word	0x3ff66666
    4568:	cccccccd 	.word	0xcccccccd
    456c:	3ff4cccc 	.word	0x3ff4cccc
    4570:	00000000 	.word	0x00000000
    4574:	3ff80000 	.word	0x3ff80000
    4578:	9999999a 	.word	0x9999999a
    457c:	3ff99999 	.word	0x3ff99999
    4580:	9999999a 	.word	0x9999999a
    4584:	3ff19999 	.word	0x3ff19999
    4588:	33333333 	.word	0x33333333
    458c:	3ff33333 	.word	0x3ff33333
    4590:	cccccccd 	.word	0xcccccccd
    4594:	4000cccc 	.word	0x4000cccc
    4598:	9999999a 	.word	0x9999999a
    459c:	40019999 	.word	0x40019999
    45a0:	66666666 	.word	0x66666666
    45a4:	3ff66666 	.word	0x3ff66666
    45a8:	cccccccd 	.word	0xcccccccd
    45ac:	3ff4cccc 	.word	0x3ff4cccc
    45b0:	00000000 	.word	0x00000000
    45b4:	3ff80000 	.word	0x3ff80000
    45b8:	9999999a 	.word	0x9999999a
    45bc:	3ff99999 	.word	0x3ff99999
    45c0:	9999999a 	.word	0x9999999a
    45c4:	3ff19999 	.word	0x3ff19999
    45c8:	33333333 	.word	0x33333333
    45cc:	3ff33333 	.word	0x3ff33333
    45d0:	cccccccd 	.word	0xcccccccd
    45d4:	4000cccc 	.word	0x4000cccc
    45d8:	9999999a 	.word	0x9999999a
    45dc:	40019999 	.word	0x40019999
    45e0:	66666666 	.word	0x66666666
    45e4:	3ff66666 	.word	0x3ff66666
    45e8:	cccccccd 	.word	0xcccccccd
    45ec:	3ff4cccc 	.word	0x3ff4cccc
    45f0:	00000000 	.word	0x00000000
    45f4:	3ff80000 	.word	0x3ff80000
    45f8:	9999999a 	.word	0x9999999a
    45fc:	3ff99999 	.word	0x3ff99999
    4600:	9999999a 	.word	0x9999999a
    4604:	3ff19999 	.word	0x3ff19999
    4608:	33333333 	.word	0x33333333
    460c:	3ff33333 	.word	0x3ff33333
    4610:	cccccccd 	.word	0xcccccccd
    4614:	4000cccc 	.word	0x4000cccc
    4618:	9999999a 	.word	0x9999999a
    461c:	40019999 	.word	0x40019999
    4620:	66666666 	.word	0x66666666
    4624:	3ff66666 	.word	0x3ff66666
    4628:	cccccccd 	.word	0xcccccccd
    462c:	3ff4cccc 	.word	0x3ff4cccc
    4630:	00000000 	.word	0x00000000
    4634:	3ff80000 	.word	0x3ff80000
    4638:	9999999a 	.word	0x9999999a
    463c:	3ff99999 	.word	0x3ff99999
    4640:	9999999a 	.word	0x9999999a
    4644:	3ff19999 	.word	0x3ff19999
    4648:	33333333 	.word	0x33333333
    464c:	3ff33333 	.word	0x3ff33333
    4650:	cccccccd 	.word	0xcccccccd
    4654:	4000cccc 	.word	0x4000cccc
    4658:	9999999a 	.word	0x9999999a
    465c:	40019999 	.word	0x40019999
    4660:	66666666 	.word	0x66666666
    4664:	3ff66666 	.word	0x3ff66666
    4668:	cccccccd 	.word	0xcccccccd
    466c:	3ff4cccc 	.word	0x3ff4cccc
    4670:	00000000 	.word	0x00000000
    4674:	3ff80000 	.word	0x3ff80000
    4678:	9999999a 	.word	0x9999999a
    467c:	3ff99999 	.word	0x3ff99999
    4680:	9999999a 	.word	0x9999999a
    4684:	3ff19999 	.word	0x3ff19999
    4688:	33333333 	.word	0x33333333
    468c:	3ff33333 	.word	0x3ff33333
    4690:	cccccccd 	.word	0xcccccccd
    4694:	4000cccc 	.word	0x4000cccc
    4698:	9999999a 	.word	0x9999999a
    469c:	40019999 	.word	0x40019999
    46a0:	66666666 	.word	0x66666666
    46a4:	3ff66666 	.word	0x3ff66666
    46a8:	cccccccd 	.word	0xcccccccd
    46ac:	3ff4cccc 	.word	0x3ff4cccc
    46b0:	00000000 	.word	0x00000000
    46b4:	3ff80000 	.word	0x3ff80000
    46b8:	9999999a 	.word	0x9999999a
    46bc:	3ff99999 	.word	0x3ff99999
    46c0:	9999999a 	.word	0x9999999a
    46c4:	3ff19999 	.word	0x3ff19999
    46c8:	33333333 	.word	0x33333333
    46cc:	3ff33333 	.word	0x3ff33333
    46d0:	cccccccd 	.word	0xcccccccd
    46d4:	4000cccc 	.word	0x4000cccc
    46d8:	9999999a 	.word	0x9999999a
    46dc:	40019999 	.word	0x40019999
    46e0:	66666666 	.word	0x66666666
    46e4:	3ff66666 	.word	0x3ff66666
    46e8:	cccccccd 	.word	0xcccccccd
    46ec:	3ff4cccc 	.word	0x3ff4cccc
    46f0:	00000000 	.word	0x00000000
    46f4:	3ff80000 	.word	0x3ff80000
    46f8:	9999999a 	.word	0x9999999a
    46fc:	3ff99999 	.word	0x3ff99999
    4700:	9999999a 	.word	0x9999999a
    4704:	3ff19999 	.word	0x3ff19999
    4708:	33333333 	.word	0x33333333
    470c:	3ff33333 	.word	0x3ff33333
    4710:	cccccccd 	.word	0xcccccccd
    4714:	4000cccc 	.word	0x4000cccc
    4718:	9999999a 	.word	0x9999999a
    471c:	40019999 	.word	0x40019999
    4720:	66666666 	.word	0x66666666
    4724:	3ff66666 	.word	0x3ff66666
    4728:	cccccccd 	.word	0xcccccccd
    472c:	3ff4cccc 	.word	0x3ff4cccc
    4730:	00000000 	.word	0x00000000
    4734:	3ff80000 	.word	0x3ff80000
    4738:	9999999a 	.word	0x9999999a
    473c:	3ff99999 	.word	0x3ff99999
    4740:	9999999a 	.word	0x9999999a
    4744:	3ff19999 	.word	0x3ff19999
    4748:	33333333 	.word	0x33333333
    474c:	3ff33333 	.word	0x3ff33333
    4750:	cccccccd 	.word	0xcccccccd
    4754:	4000cccc 	.word	0x4000cccc
    4758:	9999999a 	.word	0x9999999a
    475c:	40019999 	.word	0x40019999
    4760:	66666666 	.word	0x66666666
    4764:	3ff66666 	.word	0x3ff66666
    4768:	cccccccd 	.word	0xcccccccd
    476c:	3ff4cccc 	.word	0x3ff4cccc
    4770:	00000000 	.word	0x00000000
    4774:	3ff80000 	.word	0x3ff80000
    4778:	9999999a 	.word	0x9999999a
    477c:	3ff99999 	.word	0x3ff99999
    4780:	9999999a 	.word	0x9999999a
    4784:	3ff19999 	.word	0x3ff19999
    4788:	33333333 	.word	0x33333333
    478c:	3ff33333 	.word	0x3ff33333
    4790:	cccccccd 	.word	0xcccccccd
    4794:	4000cccc 	.word	0x4000cccc
    4798:	9999999a 	.word	0x9999999a
    479c:	40019999 	.word	0x40019999
    47a0:	66666666 	.word	0x66666666
    47a4:	3ff66666 	.word	0x3ff66666
    47a8:	cccccccd 	.word	0xcccccccd
    47ac:	3ff4cccc 	.word	0x3ff4cccc
    47b0:	00000000 	.word	0x00000000
    47b4:	3ff80000 	.word	0x3ff80000
    47b8:	9999999a 	.word	0x9999999a
    47bc:	3ff99999 	.word	0x3ff99999
    47c0:	9999999a 	.word	0x9999999a
    47c4:	3ff19999 	.word	0x3ff19999
    47c8:	33333333 	.word	0x33333333
    47cc:	3ff33333 	.word	0x3ff33333
    47d0:	cccccccd 	.word	0xcccccccd
    47d4:	4000cccc 	.word	0x4000cccc
    47d8:	9999999a 	.word	0x9999999a
    47dc:	40019999 	.word	0x40019999
    47e0:	66666666 	.word	0x66666666
    47e4:	3ff66666 	.word	0x3ff66666
    47e8:	cccccccd 	.word	0xcccccccd
    47ec:	3ff4cccc 	.word	0x3ff4cccc
    47f0:	00000000 	.word	0x00000000
    47f4:	3ff80000 	.word	0x3ff80000
    47f8:	9999999a 	.word	0x9999999a
    47fc:	3ff99999 	.word	0x3ff99999
    4800:	9999999a 	.word	0x9999999a
    4804:	3ff19999 	.word	0x3ff19999
    4808:	33333333 	.word	0x33333333
    480c:	3ff33333 	.word	0x3ff33333
    4810:	cccccccd 	.word	0xcccccccd
    4814:	4000cccc 	.word	0x4000cccc
    4818:	9999999a 	.word	0x9999999a
    481c:	40019999 	.word	0x40019999
    4820:	66666666 	.word	0x66666666
    4824:	3ff66666 	.word	0x3ff66666
    4828:	cccccccd 	.word	0xcccccccd
    482c:	3ff4cccc 	.word	0x3ff4cccc
    4830:	00000000 	.word	0x00000000
    4834:	3ff80000 	.word	0x3ff80000
    4838:	9999999a 	.word	0x9999999a
    483c:	3ff99999 	.word	0x3ff99999
    4840:	9999999a 	.word	0x9999999a
    4844:	3ff19999 	.word	0x3ff19999
    4848:	33333333 	.word	0x33333333
    484c:	3ff33333 	.word	0x3ff33333
    4850:	cccccccd 	.word	0xcccccccd
    4854:	4000cccc 	.word	0x4000cccc
    4858:	9999999a 	.word	0x9999999a
    485c:	40019999 	.word	0x40019999
    4860:	66666666 	.word	0x66666666
    4864:	3ff66666 	.word	0x3ff66666
    4868:	cccccccd 	.word	0xcccccccd
    486c:	3ff4cccc 	.word	0x3ff4cccc
    4870:	00000000 	.word	0x00000000
    4874:	3ff80000 	.word	0x3ff80000
    4878:	9999999a 	.word	0x9999999a
    487c:	3ff99999 	.word	0x3ff99999
    4880:	9999999a 	.word	0x9999999a
    4884:	3ff19999 	.word	0x3ff19999
    4888:	33333333 	.word	0x33333333
    488c:	3ff33333 	.word	0x3ff33333
    4890:	cccccccd 	.word	0xcccccccd
    4894:	4000cccc 	.word	0x4000cccc
    4898:	9999999a 	.word	0x9999999a
    489c:	40019999 	.word	0x40019999
    48a0:	66666666 	.word	0x66666666
    48a4:	3ff66666 	.word	0x3ff66666
    48a8:	cccccccd 	.word	0xcccccccd
    48ac:	3ff4cccc 	.word	0x3ff4cccc
    48b0:	00000000 	.word	0x00000000
    48b4:	3ff80000 	.word	0x3ff80000
    48b8:	9999999a 	.word	0x9999999a
    48bc:	3ff99999 	.word	0x3ff99999
    48c0:	9999999a 	.word	0x9999999a
    48c4:	3ff19999 	.word	0x3ff19999
    48c8:	33333333 	.word	0x33333333
    48cc:	3ff33333 	.word	0x3ff33333
    48d0:	cccccccd 	.word	0xcccccccd
    48d4:	4000cccc 	.word	0x4000cccc
    48d8:	9999999a 	.word	0x9999999a
    48dc:	40019999 	.word	0x40019999
    48e0:	66666666 	.word	0x66666666
    48e4:	3ff66666 	.word	0x3ff66666
    48e8:	cccccccd 	.word	0xcccccccd
    48ec:	3ff4cccc 	.word	0x3ff4cccc
    48f0:	00000000 	.word	0x00000000
    48f4:	3ff80000 	.word	0x3ff80000
    48f8:	9999999a 	.word	0x9999999a
    48fc:	3ff99999 	.word	0x3ff99999
    4900:	9999999a 	.word	0x9999999a
    4904:	3ff19999 	.word	0x3ff19999
    4908:	33333333 	.word	0x33333333
    490c:	3ff33333 	.word	0x3ff33333
    4910:	cccccccd 	.word	0xcccccccd
    4914:	4000cccc 	.word	0x4000cccc
    4918:	9999999a 	.word	0x9999999a
    491c:	40019999 	.word	0x40019999
    4920:	66666666 	.word	0x66666666
    4924:	3ff66666 	.word	0x3ff66666
    4928:	cccccccd 	.word	0xcccccccd
    492c:	3ff4cccc 	.word	0x3ff4cccc
    4930:	00000000 	.word	0x00000000
    4934:	3ff80000 	.word	0x3ff80000
    4938:	9999999a 	.word	0x9999999a
    493c:	3ff99999 	.word	0x3ff99999
    4940:	9999999a 	.word	0x9999999a
    4944:	3ff19999 	.word	0x3ff19999
    4948:	33333333 	.word	0x33333333
    494c:	3ff33333 	.word	0x3ff33333
    4950:	cccccccd 	.word	0xcccccccd
    4954:	4000cccc 	.word	0x4000cccc
    4958:	9999999a 	.word	0x9999999a
    495c:	40019999 	.word	0x40019999
    4960:	66666666 	.word	0x66666666
    4964:	3ff66666 	.word	0x3ff66666
    4968:	cccccccd 	.word	0xcccccccd
    496c:	3ff4cccc 	.word	0x3ff4cccc
    4970:	00000000 	.word	0x00000000
    4974:	3ff80000 	.word	0x3ff80000
    4978:	9999999a 	.word	0x9999999a
    497c:	3ff99999 	.word	0x3ff99999
    4980:	9999999a 	.word	0x9999999a
    4984:	3ff19999 	.word	0x3ff19999
    4988:	33333333 	.word	0x33333333
    498c:	3ff33333 	.word	0x3ff33333
    4990:	cccccccd 	.word	0xcccccccd
    4994:	4000cccc 	.word	0x4000cccc
    4998:	9999999a 	.word	0x9999999a
    499c:	40019999 	.word	0x40019999
    49a0:	66666666 	.word	0x66666666
    49a4:	3ff66666 	.word	0x3ff66666
    49a8:	cccccccd 	.word	0xcccccccd
    49ac:	3ff4cccc 	.word	0x3ff4cccc
    49b0:	00000000 	.word	0x00000000
    49b4:	3ff80000 	.word	0x3ff80000
    49b8:	9999999a 	.word	0x9999999a
    49bc:	3ff99999 	.word	0x3ff99999
    49c0:	9999999a 	.word	0x9999999a
    49c4:	3ff19999 	.word	0x3ff19999
    49c8:	33333333 	.word	0x33333333
    49cc:	3ff33333 	.word	0x3ff33333
    49d0:	cccccccd 	.word	0xcccccccd
    49d4:	4000cccc 	.word	0x4000cccc
    49d8:	9999999a 	.word	0x9999999a
    49dc:	40019999 	.word	0x40019999
    49e0:	66666666 	.word	0x66666666
    49e4:	3ff66666 	.word	0x3ff66666
    49e8:	cccccccd 	.word	0xcccccccd
    49ec:	3ff4cccc 	.word	0x3ff4cccc
    49f0:	00000000 	.word	0x00000000
    49f4:	3ff80000 	.word	0x3ff80000
    49f8:	9999999a 	.word	0x9999999a
    49fc:	3ff99999 	.word	0x3ff99999
    4a00:	9999999a 	.word	0x9999999a
    4a04:	3ff19999 	.word	0x3ff19999
    4a08:	33333333 	.word	0x33333333
    4a0c:	3ff33333 	.word	0x3ff33333
    4a10:	cccccccd 	.word	0xcccccccd
    4a14:	4000cccc 	.word	0x4000cccc
    4a18:	9999999a 	.word	0x9999999a
    4a1c:	40019999 	.word	0x40019999
    4a20:	66666666 	.word	0x66666666
    4a24:	3ff66666 	.word	0x3ff66666
    4a28:	cccccccd 	.word	0xcccccccd
    4a2c:	3ff4cccc 	.word	0x3ff4cccc
    4a30:	00000000 	.word	0x00000000
    4a34:	3ff80000 	.word	0x3ff80000
    4a38:	9999999a 	.word	0x9999999a
    4a3c:	3ff99999 	.word	0x3ff99999
    4a40:	9999999a 	.word	0x9999999a
    4a44:	3ff19999 	.word	0x3ff19999
    4a48:	33333333 	.word	0x33333333
    4a4c:	3ff33333 	.word	0x3ff33333
    4a50:	cccccccd 	.word	0xcccccccd
    4a54:	4000cccc 	.word	0x4000cccc
    4a58:	9999999a 	.word	0x9999999a
    4a5c:	40019999 	.word	0x40019999
    4a60:	66666666 	.word	0x66666666
    4a64:	3ff66666 	.word	0x3ff66666
    4a68:	cccccccd 	.word	0xcccccccd
    4a6c:	3ff4cccc 	.word	0x3ff4cccc
    4a70:	00000000 	.word	0x00000000
    4a74:	3ff80000 	.word	0x3ff80000
    4a78:	9999999a 	.word	0x9999999a
    4a7c:	3ff99999 	.word	0x3ff99999
    4a80:	9999999a 	.word	0x9999999a
    4a84:	3ff19999 	.word	0x3ff19999
    4a88:	33333333 	.word	0x33333333
    4a8c:	3ff33333 	.word	0x3ff33333
    4a90:	cccccccd 	.word	0xcccccccd
    4a94:	4000cccc 	.word	0x4000cccc
    4a98:	9999999a 	.word	0x9999999a
    4a9c:	40019999 	.word	0x40019999
    4aa0:	66666666 	.word	0x66666666
    4aa4:	3ff66666 	.word	0x3ff66666
    4aa8:	cccccccd 	.word	0xcccccccd
    4aac:	3ff4cccc 	.word	0x3ff4cccc
    4ab0:	00000000 	.word	0x00000000
    4ab4:	3ff80000 	.word	0x3ff80000
    4ab8:	9999999a 	.word	0x9999999a
    4abc:	3ff99999 	.word	0x3ff99999
    4ac0:	9999999a 	.word	0x9999999a
    4ac4:	3ff19999 	.word	0x3ff19999
    4ac8:	33333333 	.word	0x33333333
    4acc:	3ff33333 	.word	0x3ff33333
    4ad0:	cccccccd 	.word	0xcccccccd
    4ad4:	4000cccc 	.word	0x4000cccc
    4ad8:	9999999a 	.word	0x9999999a
    4adc:	40019999 	.word	0x40019999
    4ae0:	66666666 	.word	0x66666666
    4ae4:	3ff66666 	.word	0x3ff66666
    4ae8:	cccccccd 	.word	0xcccccccd
    4aec:	3ff4cccc 	.word	0x3ff4cccc
    4af0:	00000000 	.word	0x00000000
    4af4:	3ff80000 	.word	0x3ff80000
    4af8:	9999999a 	.word	0x9999999a
    4afc:	3ff99999 	.word	0x3ff99999
    4b00:	9999999a 	.word	0x9999999a
    4b04:	3ff19999 	.word	0x3ff19999
    4b08:	33333333 	.word	0x33333333
    4b0c:	3ff33333 	.word	0x3ff33333
    4b10:	cccccccd 	.word	0xcccccccd
    4b14:	4000cccc 	.word	0x4000cccc
    4b18:	9999999a 	.word	0x9999999a
    4b1c:	40019999 	.word	0x40019999
    4b20:	66666666 	.word	0x66666666
    4b24:	3ff66666 	.word	0x3ff66666
    4b28:	cccccccd 	.word	0xcccccccd
    4b2c:	3ff4cccc 	.word	0x3ff4cccc
    4b30:	00000000 	.word	0x00000000
    4b34:	3ff80000 	.word	0x3ff80000
    4b38:	9999999a 	.word	0x9999999a
    4b3c:	3ff99999 	.word	0x3ff99999
    4b40:	9999999a 	.word	0x9999999a
    4b44:	3ff19999 	.word	0x3ff19999
    4b48:	33333333 	.word	0x33333333
    4b4c:	3ff33333 	.word	0x3ff33333
    4b50:	cccccccd 	.word	0xcccccccd
    4b54:	4000cccc 	.word	0x4000cccc
    4b58:	9999999a 	.word	0x9999999a
    4b5c:	40019999 	.word	0x40019999
    4b60:	66666666 	.word	0x66666666
    4b64:	3ff66666 	.word	0x3ff66666
    4b68:	cccccccd 	.word	0xcccccccd
    4b6c:	3ff4cccc 	.word	0x3ff4cccc
    4b70:	00000000 	.word	0x00000000
    4b74:	3ff80000 	.word	0x3ff80000
    4b78:	9999999a 	.word	0x9999999a
    4b7c:	3ff99999 	.word	0x3ff99999
    4b80:	9999999a 	.word	0x9999999a
    4b84:	3ff19999 	.word	0x3ff19999
    4b88:	33333333 	.word	0x33333333
    4b8c:	3ff33333 	.word	0x3ff33333
    4b90:	cccccccd 	.word	0xcccccccd
    4b94:	4000cccc 	.word	0x4000cccc
    4b98:	9999999a 	.word	0x9999999a
    4b9c:	40019999 	.word	0x40019999
    4ba0:	66666666 	.word	0x66666666
    4ba4:	3ff66666 	.word	0x3ff66666
    4ba8:	cccccccd 	.word	0xcccccccd
    4bac:	3ff4cccc 	.word	0x3ff4cccc
    4bb0:	00000000 	.word	0x00000000
    4bb4:	3ff80000 	.word	0x3ff80000
    4bb8:	9999999a 	.word	0x9999999a
    4bbc:	3ff99999 	.word	0x3ff99999
    4bc0:	9999999a 	.word	0x9999999a
    4bc4:	3ff19999 	.word	0x3ff19999
    4bc8:	33333333 	.word	0x33333333
    4bcc:	3ff33333 	.word	0x3ff33333
    4bd0:	cccccccd 	.word	0xcccccccd
    4bd4:	4000cccc 	.word	0x4000cccc
    4bd8:	9999999a 	.word	0x9999999a
    4bdc:	40019999 	.word	0x40019999
    4be0:	66666666 	.word	0x66666666
    4be4:	3ff66666 	.word	0x3ff66666
    4be8:	cccccccd 	.word	0xcccccccd
    4bec:	3ff4cccc 	.word	0x3ff4cccc
    4bf0:	00000000 	.word	0x00000000
    4bf4:	3ff80000 	.word	0x3ff80000
    4bf8:	9999999a 	.word	0x9999999a
    4bfc:	3ff99999 	.word	0x3ff99999
    4c00:	9999999a 	.word	0x9999999a
    4c04:	3ff19999 	.word	0x3ff19999
    4c08:	33333333 	.word	0x33333333
    4c0c:	3ff33333 	.word	0x3ff33333
    4c10:	cccccccd 	.word	0xcccccccd
    4c14:	4000cccc 	.word	0x4000cccc
    4c18:	9999999a 	.word	0x9999999a
    4c1c:	40019999 	.word	0x40019999
    4c20:	66666666 	.word	0x66666666
    4c24:	3ff66666 	.word	0x3ff66666
    4c28:	cccccccd 	.word	0xcccccccd
    4c2c:	3ff4cccc 	.word	0x3ff4cccc
    4c30:	00000000 	.word	0x00000000
    4c34:	3ff80000 	.word	0x3ff80000
    4c38:	9999999a 	.word	0x9999999a
    4c3c:	3ff99999 	.word	0x3ff99999
    4c40:	9999999a 	.word	0x9999999a
    4c44:	3ff19999 	.word	0x3ff19999
    4c48:	33333333 	.word	0x33333333
    4c4c:	3ff33333 	.word	0x3ff33333
    4c50:	cccccccd 	.word	0xcccccccd
    4c54:	4000cccc 	.word	0x4000cccc
    4c58:	9999999a 	.word	0x9999999a
    4c5c:	40019999 	.word	0x40019999
    4c60:	66666666 	.word	0x66666666
    4c64:	3ff66666 	.word	0x3ff66666
    4c68:	cccccccd 	.word	0xcccccccd
    4c6c:	3ff4cccc 	.word	0x3ff4cccc
    4c70:	00000000 	.word	0x00000000
    4c74:	3ff80000 	.word	0x3ff80000
    4c78:	9999999a 	.word	0x9999999a
    4c7c:	3ff99999 	.word	0x3ff99999
    4c80:	9999999a 	.word	0x9999999a
    4c84:	3ff19999 	.word	0x3ff19999
    4c88:	33333333 	.word	0x33333333
    4c8c:	3ff33333 	.word	0x3ff33333
    4c90:	cccccccd 	.word	0xcccccccd
    4c94:	4000cccc 	.word	0x4000cccc
    4c98:	9999999a 	.word	0x9999999a
    4c9c:	40019999 	.word	0x40019999
    4ca0:	66666666 	.word	0x66666666
    4ca4:	3ff66666 	.word	0x3ff66666
    4ca8:	cccccccd 	.word	0xcccccccd
    4cac:	3ff4cccc 	.word	0x3ff4cccc
    4cb0:	00000000 	.word	0x00000000
    4cb4:	3ff80000 	.word	0x3ff80000
    4cb8:	9999999a 	.word	0x9999999a
    4cbc:	3ff99999 	.word	0x3ff99999
    4cc0:	9999999a 	.word	0x9999999a
    4cc4:	3ff19999 	.word	0x3ff19999
    4cc8:	33333333 	.word	0x33333333
    4ccc:	3ff33333 	.word	0x3ff33333
    4cd0:	cccccccd 	.word	0xcccccccd
    4cd4:	4000cccc 	.word	0x4000cccc
    4cd8:	9999999a 	.word	0x9999999a
    4cdc:	40019999 	.word	0x40019999
    4ce0:	66666666 	.word	0x66666666
    4ce4:	3ff66666 	.word	0x3ff66666
    4ce8:	cccccccd 	.word	0xcccccccd
    4cec:	3ff4cccc 	.word	0x3ff4cccc
    4cf0:	00000000 	.word	0x00000000
    4cf4:	3ff80000 	.word	0x3ff80000
    4cf8:	9999999a 	.word	0x9999999a
    4cfc:	3ff99999 	.word	0x3ff99999
    4d00:	9999999a 	.word	0x9999999a
    4d04:	3ff19999 	.word	0x3ff19999
    4d08:	33333333 	.word	0x33333333
    4d0c:	3ff33333 	.word	0x3ff33333
    4d10:	cccccccd 	.word	0xcccccccd
    4d14:	4000cccc 	.word	0x4000cccc
    4d18:	9999999a 	.word	0x9999999a
    4d1c:	40019999 	.word	0x40019999
    4d20:	66666666 	.word	0x66666666
    4d24:	3ff66666 	.word	0x3ff66666
    4d28:	cccccccd 	.word	0xcccccccd
    4d2c:	3ff4cccc 	.word	0x3ff4cccc
    4d30:	00000000 	.word	0x00000000
    4d34:	3ff80000 	.word	0x3ff80000
    4d38:	9999999a 	.word	0x9999999a
    4d3c:	3ff99999 	.word	0x3ff99999
    4d40:	9999999a 	.word	0x9999999a
    4d44:	3ff19999 	.word	0x3ff19999
    4d48:	33333333 	.word	0x33333333
    4d4c:	3ff33333 	.word	0x3ff33333
    4d50:	cccccccd 	.word	0xcccccccd
    4d54:	4000cccc 	.word	0x4000cccc
    4d58:	9999999a 	.word	0x9999999a
    4d5c:	40019999 	.word	0x40019999
    4d60:	66666666 	.word	0x66666666
    4d64:	3ff66666 	.word	0x3ff66666
    4d68:	cccccccd 	.word	0xcccccccd
    4d6c:	3ff4cccc 	.word	0x3ff4cccc
    4d70:	00000000 	.word	0x00000000
    4d74:	3ff80000 	.word	0x3ff80000
    4d78:	9999999a 	.word	0x9999999a
    4d7c:	3ff99999 	.word	0x3ff99999
    4d80:	9999999a 	.word	0x9999999a
    4d84:	3ff19999 	.word	0x3ff19999
    4d88:	33333333 	.word	0x33333333
    4d8c:	3ff33333 	.word	0x3ff33333
    4d90:	cccccccd 	.word	0xcccccccd
    4d94:	4000cccc 	.word	0x4000cccc
    4d98:	9999999a 	.word	0x9999999a
    4d9c:	40019999 	.word	0x40019999
    4da0:	66666666 	.word	0x66666666
    4da4:	3ff66666 	.word	0x3ff66666
    4da8:	cccccccd 	.word	0xcccccccd
    4dac:	3ff4cccc 	.word	0x3ff4cccc
    4db0:	00000000 	.word	0x00000000
    4db4:	3ff80000 	.word	0x3ff80000
    4db8:	9999999a 	.word	0x9999999a
    4dbc:	3ff99999 	.word	0x3ff99999
    4dc0:	9999999a 	.word	0x9999999a
    4dc4:	3ff19999 	.word	0x3ff19999
    4dc8:	33333333 	.word	0x33333333
    4dcc:	3ff33333 	.word	0x3ff33333
    4dd0:	cccccccd 	.word	0xcccccccd
    4dd4:	4000cccc 	.word	0x4000cccc
    4dd8:	9999999a 	.word	0x9999999a
    4ddc:	40019999 	.word	0x40019999
    4de0:	66666666 	.word	0x66666666
    4de4:	3ff66666 	.word	0x3ff66666
    4de8:	cccccccd 	.word	0xcccccccd
    4dec:	3ff4cccc 	.word	0x3ff4cccc
    4df0:	00000000 	.word	0x00000000
    4df4:	3ff80000 	.word	0x3ff80000
    4df8:	9999999a 	.word	0x9999999a
    4dfc:	3ff99999 	.word	0x3ff99999
    4e00:	9999999a 	.word	0x9999999a
    4e04:	3ff19999 	.word	0x3ff19999
    4e08:	33333333 	.word	0x33333333
    4e0c:	3ff33333 	.word	0x3ff33333
    4e10:	cccccccd 	.word	0xcccccccd
    4e14:	4000cccc 	.word	0x4000cccc
    4e18:	9999999a 	.word	0x9999999a
    4e1c:	40019999 	.word	0x40019999
    4e20:	66666666 	.word	0x66666666
    4e24:	3ff66666 	.word	0x3ff66666
    4e28:	cccccccd 	.word	0xcccccccd
    4e2c:	3ff4cccc 	.word	0x3ff4cccc
    4e30:	00000000 	.word	0x00000000
    4e34:	3ff80000 	.word	0x3ff80000
    4e38:	9999999a 	.word	0x9999999a
    4e3c:	3ff99999 	.word	0x3ff99999
    4e40:	9999999a 	.word	0x9999999a
    4e44:	3ff19999 	.word	0x3ff19999
    4e48:	33333333 	.word	0x33333333
    4e4c:	3ff33333 	.word	0x3ff33333
    4e50:	cccccccd 	.word	0xcccccccd
    4e54:	4000cccc 	.word	0x4000cccc
    4e58:	9999999a 	.word	0x9999999a
    4e5c:	40019999 	.word	0x40019999
    4e60:	66666666 	.word	0x66666666
    4e64:	3ff66666 	.word	0x3ff66666
    4e68:	cccccccd 	.word	0xcccccccd
    4e6c:	3ff4cccc 	.word	0x3ff4cccc
    4e70:	00000000 	.word	0x00000000
    4e74:	3ff80000 	.word	0x3ff80000
    4e78:	9999999a 	.word	0x9999999a
    4e7c:	3ff99999 	.word	0x3ff99999
    4e80:	9999999a 	.word	0x9999999a
    4e84:	3ff19999 	.word	0x3ff19999
    4e88:	33333333 	.word	0x33333333
    4e8c:	3ff33333 	.word	0x3ff33333
    4e90:	cccccccd 	.word	0xcccccccd
    4e94:	4000cccc 	.word	0x4000cccc
    4e98:	9999999a 	.word	0x9999999a
    4e9c:	40019999 	.word	0x40019999
    4ea0:	66666666 	.word	0x66666666
    4ea4:	3ff66666 	.word	0x3ff66666
    4ea8:	cccccccd 	.word	0xcccccccd
    4eac:	3ff4cccc 	.word	0x3ff4cccc
    4eb0:	00000000 	.word	0x00000000
    4eb4:	3ff80000 	.word	0x3ff80000
    4eb8:	9999999a 	.word	0x9999999a
    4ebc:	3ff99999 	.word	0x3ff99999
    4ec0:	9999999a 	.word	0x9999999a
    4ec4:	3ff19999 	.word	0x3ff19999
    4ec8:	33333333 	.word	0x33333333
    4ecc:	3ff33333 	.word	0x3ff33333
    4ed0:	cccccccd 	.word	0xcccccccd
    4ed4:	4000cccc 	.word	0x4000cccc
    4ed8:	9999999a 	.word	0x9999999a
    4edc:	40019999 	.word	0x40019999
    4ee0:	66666666 	.word	0x66666666
    4ee4:	3ff66666 	.word	0x3ff66666
    4ee8:	cccccccd 	.word	0xcccccccd
    4eec:	3ff4cccc 	.word	0x3ff4cccc
    4ef0:	00000000 	.word	0x00000000
    4ef4:	3ff80000 	.word	0x3ff80000
    4ef8:	9999999a 	.word	0x9999999a
    4efc:	3ff99999 	.word	0x3ff99999
    4f00:	9999999a 	.word	0x9999999a
    4f04:	3ff19999 	.word	0x3ff19999
    4f08:	33333333 	.word	0x33333333
    4f0c:	3ff33333 	.word	0x3ff33333
    4f10:	cccccccd 	.word	0xcccccccd
    4f14:	4000cccc 	.word	0x4000cccc
    4f18:	9999999a 	.word	0x9999999a
    4f1c:	40019999 	.word	0x40019999
    4f20:	66666666 	.word	0x66666666
    4f24:	3ff66666 	.word	0x3ff66666
    4f28:	cccccccd 	.word	0xcccccccd
    4f2c:	3ff4cccc 	.word	0x3ff4cccc
    4f30:	00000000 	.word	0x00000000
    4f34:	3ff80000 	.word	0x3ff80000
    4f38:	9999999a 	.word	0x9999999a
    4f3c:	3ff99999 	.word	0x3ff99999
    4f40:	9999999a 	.word	0x9999999a
    4f44:	3ff19999 	.word	0x3ff19999
    4f48:	33333333 	.word	0x33333333
    4f4c:	3ff33333 	.word	0x3ff33333
    4f50:	cccccccd 	.word	0xcccccccd
    4f54:	4000cccc 	.word	0x4000cccc
    4f58:	9999999a 	.word	0x9999999a
    4f5c:	40019999 	.word	0x40019999
    4f60:	66666666 	.word	0x66666666
    4f64:	3ff66666 	.word	0x3ff66666
    4f68:	cccccccd 	.word	0xcccccccd
    4f6c:	3ff4cccc 	.word	0x3ff4cccc
    4f70:	00000000 	.word	0x00000000
    4f74:	3ff80000 	.word	0x3ff80000
    4f78:	9999999a 	.word	0x9999999a
    4f7c:	3ff99999 	.word	0x3ff99999
    4f80:	9999999a 	.word	0x9999999a
    4f84:	3ff19999 	.word	0x3ff19999
    4f88:	33333333 	.word	0x33333333
    4f8c:	3ff33333 	.word	0x3ff33333
    4f90:	cccccccd 	.word	0xcccccccd
    4f94:	4000cccc 	.word	0x4000cccc
    4f98:	9999999a 	.word	0x9999999a
    4f9c:	40019999 	.word	0x40019999
    4fa0:	66666666 	.word	0x66666666
    4fa4:	3ff66666 	.word	0x3ff66666
    4fa8:	cccccccd 	.word	0xcccccccd
    4fac:	3ff4cccc 	.word	0x3ff4cccc
    4fb0:	00000000 	.word	0x00000000
    4fb4:	3ff80000 	.word	0x3ff80000
    4fb8:	9999999a 	.word	0x9999999a
    4fbc:	3ff99999 	.word	0x3ff99999
    4fc0:	9999999a 	.word	0x9999999a
    4fc4:	3ff19999 	.word	0x3ff19999
    4fc8:	33333333 	.word	0x33333333
    4fcc:	3ff33333 	.word	0x3ff33333
    4fd0:	cccccccd 	.word	0xcccccccd
    4fd4:	4000cccc 	.word	0x4000cccc
    4fd8:	9999999a 	.word	0x9999999a
    4fdc:	40019999 	.word	0x40019999
    4fe0:	66666666 	.word	0x66666666
    4fe4:	3ff66666 	.word	0x3ff66666
    4fe8:	cccccccd 	.word	0xcccccccd
    4fec:	3ff4cccc 	.word	0x3ff4cccc
    4ff0:	00000000 	.word	0x00000000
    4ff4:	3ff80000 	.word	0x3ff80000
    4ff8:	9999999a 	.word	0x9999999a
    4ffc:	3ff99999 	.word	0x3ff99999
    5000:	9999999a 	.word	0x9999999a
    5004:	3ff19999 	.word	0x3ff19999
    5008:	33333333 	.word	0x33333333
    500c:	3ff33333 	.word	0x3ff33333
    5010:	cccccccd 	.word	0xcccccccd
    5014:	4000cccc 	.word	0x4000cccc
    5018:	9999999a 	.word	0x9999999a
    501c:	40019999 	.word	0x40019999
    5020:	66666666 	.word	0x66666666
    5024:	3ff66666 	.word	0x3ff66666
    5028:	cccccccd 	.word	0xcccccccd
    502c:	3ff4cccc 	.word	0x3ff4cccc
    5030:	00000000 	.word	0x00000000
    5034:	3ff80000 	.word	0x3ff80000
    5038:	9999999a 	.word	0x9999999a
    503c:	3ff99999 	.word	0x3ff99999
    5040:	9999999a 	.word	0x9999999a
    5044:	3ff19999 	.word	0x3ff19999
    5048:	33333333 	.word	0x33333333
    504c:	3ff33333 	.word	0x3ff33333
    5050:	cccccccd 	.word	0xcccccccd
    5054:	4000cccc 	.word	0x4000cccc
    5058:	9999999a 	.word	0x9999999a
    505c:	40019999 	.word	0x40019999
    5060:	66666666 	.word	0x66666666
    5064:	3ff66666 	.word	0x3ff66666
    5068:	cccccccd 	.word	0xcccccccd
    506c:	3ff4cccc 	.word	0x3ff4cccc
    5070:	00000000 	.word	0x00000000
    5074:	3ff80000 	.word	0x3ff80000
    5078:	9999999a 	.word	0x9999999a
    507c:	3ff99999 	.word	0x3ff99999
    5080:	9999999a 	.word	0x9999999a
    5084:	3ff19999 	.word	0x3ff19999
    5088:	33333333 	.word	0x33333333
    508c:	3ff33333 	.word	0x3ff33333
    5090:	cccccccd 	.word	0xcccccccd
    5094:	4000cccc 	.word	0x4000cccc
    5098:	9999999a 	.word	0x9999999a
    509c:	40019999 	.word	0x40019999
    50a0:	66666666 	.word	0x66666666
    50a4:	3ff66666 	.word	0x3ff66666
    50a8:	cccccccd 	.word	0xcccccccd
    50ac:	3ff4cccc 	.word	0x3ff4cccc
    50b0:	00000000 	.word	0x00000000
    50b4:	3ff80000 	.word	0x3ff80000
    50b8:	9999999a 	.word	0x9999999a
    50bc:	3ff99999 	.word	0x3ff99999
    50c0:	9999999a 	.word	0x9999999a
    50c4:	3ff19999 	.word	0x3ff19999
    50c8:	33333333 	.word	0x33333333
    50cc:	3ff33333 	.word	0x3ff33333
    50d0:	cccccccd 	.word	0xcccccccd
    50d4:	4000cccc 	.word	0x4000cccc
    50d8:	9999999a 	.word	0x9999999a
    50dc:	40019999 	.word	0x40019999
    50e0:	66666666 	.word	0x66666666
    50e4:	3ff66666 	.word	0x3ff66666
    50e8:	cccccccd 	.word	0xcccccccd
    50ec:	3ff4cccc 	.word	0x3ff4cccc
    50f0:	00000000 	.word	0x00000000
    50f4:	3ff80000 	.word	0x3ff80000
    50f8:	9999999a 	.word	0x9999999a
    50fc:	3ff99999 	.word	0x3ff99999
    5100:	9999999a 	.word	0x9999999a
    5104:	3ff19999 	.word	0x3ff19999
    5108:	33333333 	.word	0x33333333
    510c:	3ff33333 	.word	0x3ff33333
    5110:	cccccccd 	.word	0xcccccccd
    5114:	4000cccc 	.word	0x4000cccc
    5118:	9999999a 	.word	0x9999999a
    511c:	40019999 	.word	0x40019999
    5120:	66666666 	.word	0x66666666
    5124:	3ff66666 	.word	0x3ff66666
    5128:	cccccccd 	.word	0xcccccccd
    512c:	3ff4cccc 	.word	0x3ff4cccc
    5130:	00000000 	.word	0x00000000
    5134:	3ff80000 	.word	0x3ff80000
    5138:	9999999a 	.word	0x9999999a
    513c:	3ff99999 	.word	0x3ff99999
    5140:	9999999a 	.word	0x9999999a
    5144:	3ff19999 	.word	0x3ff19999
    5148:	33333333 	.word	0x33333333
    514c:	3ff33333 	.word	0x3ff33333
    5150:	cccccccd 	.word	0xcccccccd
    5154:	4000cccc 	.word	0x4000cccc
    5158:	9999999a 	.word	0x9999999a
    515c:	40019999 	.word	0x40019999
    5160:	66666666 	.word	0x66666666
    5164:	3ff66666 	.word	0x3ff66666
    5168:	cccccccd 	.word	0xcccccccd
    516c:	3ff4cccc 	.word	0x3ff4cccc
    5170:	00000000 	.word	0x00000000
    5174:	3ff80000 	.word	0x3ff80000
    5178:	9999999a 	.word	0x9999999a
    517c:	3ff99999 	.word	0x3ff99999
    5180:	9999999a 	.word	0x9999999a
    5184:	3ff19999 	.word	0x3ff19999
    5188:	33333333 	.word	0x33333333
    518c:	3ff33333 	.word	0x3ff33333
    5190:	cccccccd 	.word	0xcccccccd
    5194:	4000cccc 	.word	0x4000cccc
    5198:	9999999a 	.word	0x9999999a
    519c:	40019999 	.word	0x40019999
    51a0:	66666666 	.word	0x66666666
    51a4:	3ff66666 	.word	0x3ff66666
    51a8:	cccccccd 	.word	0xcccccccd
    51ac:	3ff4cccc 	.word	0x3ff4cccc
    51b0:	00000000 	.word	0x00000000
    51b4:	3ff80000 	.word	0x3ff80000
    51b8:	9999999a 	.word	0x9999999a
    51bc:	3ff99999 	.word	0x3ff99999
    51c0:	9999999a 	.word	0x9999999a
    51c4:	3ff19999 	.word	0x3ff19999
    51c8:	33333333 	.word	0x33333333
    51cc:	3ff33333 	.word	0x3ff33333
    51d0:	cccccccd 	.word	0xcccccccd
    51d4:	4000cccc 	.word	0x4000cccc
    51d8:	9999999a 	.word	0x9999999a
    51dc:	40019999 	.word	0x40019999
    51e0:	66666666 	.word	0x66666666
    51e4:	3ff66666 	.word	0x3ff66666
    51e8:	cccccccd 	.word	0xcccccccd
    51ec:	3ff4cccc 	.word	0x3ff4cccc
    51f0:	00000000 	.word	0x00000000
    51f4:	3ff80000 	.word	0x3ff80000
    51f8:	9999999a 	.word	0x9999999a
    51fc:	3ff99999 	.word	0x3ff99999
    5200:	9999999a 	.word	0x9999999a
    5204:	3ff19999 	.word	0x3ff19999
    5208:	33333333 	.word	0x33333333
    520c:	3ff33333 	.word	0x3ff33333
    5210:	cccccccd 	.word	0xcccccccd
    5214:	4000cccc 	.word	0x4000cccc
    5218:	9999999a 	.word	0x9999999a
    521c:	40019999 	.word	0x40019999
    5220:	66666666 	.word	0x66666666
    5224:	3ff66666 	.word	0x3ff66666
    5228:	cccccccd 	.word	0xcccccccd
    522c:	3ff4cccc 	.word	0x3ff4cccc
    5230:	00000000 	.word	0x00000000
    5234:	3ff80000 	.word	0x3ff80000
    5238:	9999999a 	.word	0x9999999a
    523c:	3ff99999 	.word	0x3ff99999
    5240:	9999999a 	.word	0x9999999a
    5244:	3ff19999 	.word	0x3ff19999
    5248:	33333333 	.word	0x33333333
    524c:	3ff33333 	.word	0x3ff33333
    5250:	cccccccd 	.word	0xcccccccd
    5254:	4000cccc 	.word	0x4000cccc
    5258:	9999999a 	.word	0x9999999a
    525c:	40019999 	.word	0x40019999
    5260:	66666666 	.word	0x66666666
    5264:	3ff66666 	.word	0x3ff66666
    5268:	cccccccd 	.word	0xcccccccd
    526c:	3ff4cccc 	.word	0x3ff4cccc
    5270:	00000000 	.word	0x00000000
    5274:	3ff80000 	.word	0x3ff80000
    5278:	9999999a 	.word	0x9999999a
    527c:	3ff99999 	.word	0x3ff99999
    5280:	9999999a 	.word	0x9999999a
    5284:	3ff19999 	.word	0x3ff19999
    5288:	33333333 	.word	0x33333333
    528c:	3ff33333 	.word	0x3ff33333
    5290:	cccccccd 	.word	0xcccccccd
    5294:	4000cccc 	.word	0x4000cccc
    5298:	9999999a 	.word	0x9999999a
    529c:	40019999 	.word	0x40019999
    52a0:	66666666 	.word	0x66666666
    52a4:	3ff66666 	.word	0x3ff66666
    52a8:	cccccccd 	.word	0xcccccccd
    52ac:	3ff4cccc 	.word	0x3ff4cccc
    52b0:	00000000 	.word	0x00000000
    52b4:	3ff80000 	.word	0x3ff80000
    52b8:	9999999a 	.word	0x9999999a
    52bc:	3ff99999 	.word	0x3ff99999
    52c0:	9999999a 	.word	0x9999999a
    52c4:	3ff19999 	.word	0x3ff19999
    52c8:	33333333 	.word	0x33333333
    52cc:	3ff33333 	.word	0x3ff33333
    52d0:	cccccccd 	.word	0xcccccccd
    52d4:	4000cccc 	.word	0x4000cccc
    52d8:	9999999a 	.word	0x9999999a
    52dc:	40019999 	.word	0x40019999
    52e0:	66666666 	.word	0x66666666
    52e4:	3ff66666 	.word	0x3ff66666
    52e8:	cccccccd 	.word	0xcccccccd
    52ec:	3ff4cccc 	.word	0x3ff4cccc
    52f0:	00000000 	.word	0x00000000
    52f4:	3ff80000 	.word	0x3ff80000
    52f8:	9999999a 	.word	0x9999999a
    52fc:	3ff99999 	.word	0x3ff99999
    5300:	9999999a 	.word	0x9999999a
    5304:	3ff19999 	.word	0x3ff19999
    5308:	33333333 	.word	0x33333333
    530c:	3ff33333 	.word	0x3ff33333
    5310:	cccccccd 	.word	0xcccccccd
    5314:	4000cccc 	.word	0x4000cccc
    5318:	9999999a 	.word	0x9999999a
    531c:	40019999 	.word	0x40019999
    5320:	66666666 	.word	0x66666666
    5324:	3ff66666 	.word	0x3ff66666
    5328:	cccccccd 	.word	0xcccccccd
    532c:	3ff4cccc 	.word	0x3ff4cccc
    5330:	00000000 	.word	0x00000000
    5334:	3ff80000 	.word	0x3ff80000
    5338:	9999999a 	.word	0x9999999a
    533c:	3ff99999 	.word	0x3ff99999
    5340:	9999999a 	.word	0x9999999a
    5344:	3ff19999 	.word	0x3ff19999
    5348:	33333333 	.word	0x33333333
    534c:	3ff33333 	.word	0x3ff33333
    5350:	cccccccd 	.word	0xcccccccd
    5354:	4000cccc 	.word	0x4000cccc
    5358:	9999999a 	.word	0x9999999a
    535c:	40019999 	.word	0x40019999
    5360:	66666666 	.word	0x66666666
    5364:	3ff66666 	.word	0x3ff66666
    5368:	cccccccd 	.word	0xcccccccd
    536c:	3ff4cccc 	.word	0x3ff4cccc
    5370:	00000000 	.word	0x00000000
    5374:	3ff80000 	.word	0x3ff80000
    5378:	9999999a 	.word	0x9999999a
    537c:	3ff99999 	.word	0x3ff99999
    5380:	9999999a 	.word	0x9999999a
    5384:	3ff19999 	.word	0x3ff19999
    5388:	33333333 	.word	0x33333333
    538c:	3ff33333 	.word	0x3ff33333
    5390:	cccccccd 	.word	0xcccccccd
    5394:	4000cccc 	.word	0x4000cccc
    5398:	9999999a 	.word	0x9999999a
    539c:	40019999 	.word	0x40019999
    53a0:	66666666 	.word	0x66666666
    53a4:	3ff66666 	.word	0x3ff66666
    53a8:	cccccccd 	.word	0xcccccccd
    53ac:	3ff4cccc 	.word	0x3ff4cccc
    53b0:	00000000 	.word	0x00000000
    53b4:	3ff80000 	.word	0x3ff80000
    53b8:	9999999a 	.word	0x9999999a
    53bc:	3ff99999 	.word	0x3ff99999
    53c0:	9999999a 	.word	0x9999999a
    53c4:	3ff19999 	.word	0x3ff19999
    53c8:	33333333 	.word	0x33333333
    53cc:	3ff33333 	.word	0x3ff33333
    53d0:	cccccccd 	.word	0xcccccccd
    53d4:	4000cccc 	.word	0x4000cccc
    53d8:	9999999a 	.word	0x9999999a
    53dc:	40019999 	.word	0x40019999
    53e0:	66666666 	.word	0x66666666
    53e4:	3ff66666 	.word	0x3ff66666
    53e8:	cccccccd 	.word	0xcccccccd
    53ec:	3ff4cccc 	.word	0x3ff4cccc
    53f0:	00000000 	.word	0x00000000
    53f4:	3ff80000 	.word	0x3ff80000
    53f8:	9999999a 	.word	0x9999999a
    53fc:	3ff99999 	.word	0x3ff99999
    5400:	9999999a 	.word	0x9999999a
    5404:	3ff19999 	.word	0x3ff19999
    5408:	33333333 	.word	0x33333333
    540c:	3ff33333 	.word	0x3ff33333
    5410:	cccccccd 	.word	0xcccccccd
    5414:	4000cccc 	.word	0x4000cccc
    5418:	9999999a 	.word	0x9999999a
    541c:	40019999 	.word	0x40019999
    5420:	66666666 	.word	0x66666666
    5424:	3ff66666 	.word	0x3ff66666
    5428:	cccccccd 	.word	0xcccccccd
    542c:	3ff4cccc 	.word	0x3ff4cccc
    5430:	00000000 	.word	0x00000000
    5434:	3ff80000 	.word	0x3ff80000
    5438:	9999999a 	.word	0x9999999a
    543c:	3ff99999 	.word	0x3ff99999
    5440:	9999999a 	.word	0x9999999a
    5444:	3ff19999 	.word	0x3ff19999
    5448:	33333333 	.word	0x33333333
    544c:	3ff33333 	.word	0x3ff33333
    5450:	cccccccd 	.word	0xcccccccd
    5454:	4000cccc 	.word	0x4000cccc
    5458:	9999999a 	.word	0x9999999a
    545c:	40019999 	.word	0x40019999
    5460:	66666666 	.word	0x66666666
    5464:	3ff66666 	.word	0x3ff66666
    5468:	cccccccd 	.word	0xcccccccd
    546c:	3ff4cccc 	.word	0x3ff4cccc
    5470:	00000000 	.word	0x00000000
    5474:	3ff80000 	.word	0x3ff80000
    5478:	9999999a 	.word	0x9999999a
    547c:	3ff99999 	.word	0x3ff99999
    5480:	9999999a 	.word	0x9999999a
    5484:	3ff19999 	.word	0x3ff19999
    5488:	33333333 	.word	0x33333333
    548c:	3ff33333 	.word	0x3ff33333
    5490:	cccccccd 	.word	0xcccccccd
    5494:	4000cccc 	.word	0x4000cccc
    5498:	9999999a 	.word	0x9999999a
    549c:	40019999 	.word	0x40019999
    54a0:	66666666 	.word	0x66666666
    54a4:	3ff66666 	.word	0x3ff66666
    54a8:	cccccccd 	.word	0xcccccccd
    54ac:	3ff4cccc 	.word	0x3ff4cccc
    54b0:	00000000 	.word	0x00000000
    54b4:	3ff80000 	.word	0x3ff80000
    54b8:	9999999a 	.word	0x9999999a
    54bc:	3ff99999 	.word	0x3ff99999
    54c0:	9999999a 	.word	0x9999999a
    54c4:	3ff19999 	.word	0x3ff19999
    54c8:	33333333 	.word	0x33333333
    54cc:	3ff33333 	.word	0x3ff33333
    54d0:	cccccccd 	.word	0xcccccccd
    54d4:	4000cccc 	.word	0x4000cccc
    54d8:	9999999a 	.word	0x9999999a
    54dc:	40019999 	.word	0x40019999
    54e0:	66666666 	.word	0x66666666
    54e4:	3ff66666 	.word	0x3ff66666
    54e8:	cccccccd 	.word	0xcccccccd
    54ec:	3ff4cccc 	.word	0x3ff4cccc
    54f0:	00000000 	.word	0x00000000
    54f4:	3ff80000 	.word	0x3ff80000
    54f8:	9999999a 	.word	0x9999999a
    54fc:	3ff99999 	.word	0x3ff99999
    5500:	9999999a 	.word	0x9999999a
    5504:	3ff19999 	.word	0x3ff19999
    5508:	33333333 	.word	0x33333333
    550c:	3ff33333 	.word	0x3ff33333
    5510:	cccccccd 	.word	0xcccccccd
    5514:	4000cccc 	.word	0x4000cccc
    5518:	9999999a 	.word	0x9999999a
    551c:	40019999 	.word	0x40019999
    5520:	66666666 	.word	0x66666666
    5524:	3ff66666 	.word	0x3ff66666
    5528:	cccccccd 	.word	0xcccccccd
    552c:	3ff4cccc 	.word	0x3ff4cccc
    5530:	00000000 	.word	0x00000000
    5534:	3ff80000 	.word	0x3ff80000
    5538:	9999999a 	.word	0x9999999a
    553c:	3ff99999 	.word	0x3ff99999
    5540:	9999999a 	.word	0x9999999a
    5544:	3ff19999 	.word	0x3ff19999
    5548:	33333333 	.word	0x33333333
    554c:	3ff33333 	.word	0x3ff33333
    5550:	cccccccd 	.word	0xcccccccd
    5554:	4000cccc 	.word	0x4000cccc
    5558:	9999999a 	.word	0x9999999a
    555c:	40019999 	.word	0x40019999
    5560:	66666666 	.word	0x66666666
    5564:	3ff66666 	.word	0x3ff66666
    5568:	cccccccd 	.word	0xcccccccd
    556c:	3ff4cccc 	.word	0x3ff4cccc
    5570:	00000000 	.word	0x00000000
    5574:	3ff80000 	.word	0x3ff80000
    5578:	9999999a 	.word	0x9999999a
    557c:	3ff99999 	.word	0x3ff99999
    5580:	9999999a 	.word	0x9999999a
    5584:	3ff19999 	.word	0x3ff19999
    5588:	33333333 	.word	0x33333333
    558c:	3ff33333 	.word	0x3ff33333
    5590:	cccccccd 	.word	0xcccccccd
    5594:	4000cccc 	.word	0x4000cccc
    5598:	9999999a 	.word	0x9999999a
    559c:	40019999 	.word	0x40019999
    55a0:	66666666 	.word	0x66666666
    55a4:	3ff66666 	.word	0x3ff66666
    55a8:	cccccccd 	.word	0xcccccccd
    55ac:	3ff4cccc 	.word	0x3ff4cccc
    55b0:	00000000 	.word	0x00000000
    55b4:	3ff80000 	.word	0x3ff80000
    55b8:	9999999a 	.word	0x9999999a
    55bc:	3ff99999 	.word	0x3ff99999
    55c0:	9999999a 	.word	0x9999999a
    55c4:	3ff19999 	.word	0x3ff19999
    55c8:	33333333 	.word	0x33333333
    55cc:	3ff33333 	.word	0x3ff33333
    55d0:	cccccccd 	.word	0xcccccccd
    55d4:	4000cccc 	.word	0x4000cccc
    55d8:	9999999a 	.word	0x9999999a
    55dc:	40019999 	.word	0x40019999
    55e0:	66666666 	.word	0x66666666
    55e4:	3ff66666 	.word	0x3ff66666
    55e8:	cccccccd 	.word	0xcccccccd
    55ec:	3ff4cccc 	.word	0x3ff4cccc
    55f0:	00000000 	.word	0x00000000
    55f4:	3ff80000 	.word	0x3ff80000
    55f8:	9999999a 	.word	0x9999999a
    55fc:	3ff99999 	.word	0x3ff99999
    5600:	9999999a 	.word	0x9999999a
    5604:	3ff19999 	.word	0x3ff19999
    5608:	33333333 	.word	0x33333333
    560c:	3ff33333 	.word	0x3ff33333
    5610:	cccccccd 	.word	0xcccccccd
    5614:	4000cccc 	.word	0x4000cccc
    5618:	9999999a 	.word	0x9999999a
    561c:	40019999 	.word	0x40019999
    5620:	66666666 	.word	0x66666666
    5624:	3ff66666 	.word	0x3ff66666
    5628:	cccccccd 	.word	0xcccccccd
    562c:	3ff4cccc 	.word	0x3ff4cccc
    5630:	00000000 	.word	0x00000000
    5634:	3ff80000 	.word	0x3ff80000
    5638:	9999999a 	.word	0x9999999a
    563c:	3ff99999 	.word	0x3ff99999
    5640:	9999999a 	.word	0x9999999a
    5644:	3ff19999 	.word	0x3ff19999
    5648:	33333333 	.word	0x33333333
    564c:	3ff33333 	.word	0x3ff33333
    5650:	cccccccd 	.word	0xcccccccd
    5654:	4000cccc 	.word	0x4000cccc
    5658:	9999999a 	.word	0x9999999a
    565c:	40019999 	.word	0x40019999
    5660:	66666666 	.word	0x66666666
    5664:	3ff66666 	.word	0x3ff66666
    5668:	cccccccd 	.word	0xcccccccd
    566c:	3ff4cccc 	.word	0x3ff4cccc
    5670:	00000000 	.word	0x00000000
    5674:	3ff80000 	.word	0x3ff80000
    5678:	9999999a 	.word	0x9999999a
    567c:	3ff99999 	.word	0x3ff99999
    5680:	9999999a 	.word	0x9999999a
    5684:	3ff19999 	.word	0x3ff19999
    5688:	33333333 	.word	0x33333333
    568c:	3ff33333 	.word	0x3ff33333
    5690:	cccccccd 	.word	0xcccccccd
    5694:	4000cccc 	.word	0x4000cccc
    5698:	9999999a 	.word	0x9999999a
    569c:	40019999 	.word	0x40019999
    56a0:	66666666 	.word	0x66666666
    56a4:	3ff66666 	.word	0x3ff66666
    56a8:	cccccccd 	.word	0xcccccccd
    56ac:	3ff4cccc 	.word	0x3ff4cccc
    56b0:	00000000 	.word	0x00000000
    56b4:	3ff80000 	.word	0x3ff80000
    56b8:	9999999a 	.word	0x9999999a
    56bc:	3ff99999 	.word	0x3ff99999
    56c0:	9999999a 	.word	0x9999999a
    56c4:	3ff19999 	.word	0x3ff19999
    56c8:	33333333 	.word	0x33333333
    56cc:	3ff33333 	.word	0x3ff33333
    56d0:	cccccccd 	.word	0xcccccccd
    56d4:	4000cccc 	.word	0x4000cccc
    56d8:	9999999a 	.word	0x9999999a
    56dc:	40019999 	.word	0x40019999
    56e0:	66666666 	.word	0x66666666
    56e4:	3ff66666 	.word	0x3ff66666
    56e8:	cccccccd 	.word	0xcccccccd
    56ec:	3ff4cccc 	.word	0x3ff4cccc
    56f0:	00000000 	.word	0x00000000
    56f4:	3ff80000 	.word	0x3ff80000
    56f8:	9999999a 	.word	0x9999999a
    56fc:	3ff99999 	.word	0x3ff99999
    5700:	9999999a 	.word	0x9999999a
    5704:	3ff19999 	.word	0x3ff19999
    5708:	33333333 	.word	0x33333333
    570c:	3ff33333 	.word	0x3ff33333
    5710:	cccccccd 	.word	0xcccccccd
    5714:	4000cccc 	.word	0x4000cccc
    5718:	9999999a 	.word	0x9999999a
    571c:	40019999 	.word	0x40019999
    5720:	66666666 	.word	0x66666666
    5724:	3ff66666 	.word	0x3ff66666
    5728:	cccccccd 	.word	0xcccccccd
    572c:	3ff4cccc 	.word	0x3ff4cccc
    5730:	00000000 	.word	0x00000000
    5734:	3ff80000 	.word	0x3ff80000
    5738:	9999999a 	.word	0x9999999a
    573c:	3ff99999 	.word	0x3ff99999
    5740:	9999999a 	.word	0x9999999a
    5744:	3ff19999 	.word	0x3ff19999
    5748:	33333333 	.word	0x33333333
    574c:	3ff33333 	.word	0x3ff33333
    5750:	cccccccd 	.word	0xcccccccd
    5754:	4000cccc 	.word	0x4000cccc
    5758:	9999999a 	.word	0x9999999a
    575c:	40019999 	.word	0x40019999
    5760:	66666666 	.word	0x66666666
    5764:	3ff66666 	.word	0x3ff66666
    5768:	cccccccd 	.word	0xcccccccd
    576c:	3ff4cccc 	.word	0x3ff4cccc
    5770:	00000000 	.word	0x00000000
    5774:	3ff80000 	.word	0x3ff80000
    5778:	9999999a 	.word	0x9999999a
    577c:	3ff99999 	.word	0x3ff99999
    5780:	9999999a 	.word	0x9999999a
    5784:	3ff19999 	.word	0x3ff19999
    5788:	33333333 	.word	0x33333333
    578c:	3ff33333 	.word	0x3ff33333
    5790:	cccccccd 	.word	0xcccccccd
    5794:	4000cccc 	.word	0x4000cccc
    5798:	9999999a 	.word	0x9999999a
    579c:	40019999 	.word	0x40019999
    57a0:	66666666 	.word	0x66666666
    57a4:	3ff66666 	.word	0x3ff66666
    57a8:	cccccccd 	.word	0xcccccccd
    57ac:	3ff4cccc 	.word	0x3ff4cccc
    57b0:	00000000 	.word	0x00000000
    57b4:	3ff80000 	.word	0x3ff80000
    57b8:	9999999a 	.word	0x9999999a
    57bc:	3ff99999 	.word	0x3ff99999
    57c0:	9999999a 	.word	0x9999999a
    57c4:	3ff19999 	.word	0x3ff19999
    57c8:	33333333 	.word	0x33333333
    57cc:	3ff33333 	.word	0x3ff33333
    57d0:	cccccccd 	.word	0xcccccccd
    57d4:	4000cccc 	.word	0x4000cccc
    57d8:	9999999a 	.word	0x9999999a
    57dc:	40019999 	.word	0x40019999
    57e0:	66666666 	.word	0x66666666
    57e4:	3ff66666 	.word	0x3ff66666
    57e8:	cccccccd 	.word	0xcccccccd
    57ec:	3ff4cccc 	.word	0x3ff4cccc
    57f0:	00000000 	.word	0x00000000
    57f4:	3ff80000 	.word	0x3ff80000
    57f8:	9999999a 	.word	0x9999999a
    57fc:	3ff99999 	.word	0x3ff99999
    5800:	9999999a 	.word	0x9999999a
    5804:	3ff19999 	.word	0x3ff19999
    5808:	33333333 	.word	0x33333333
    580c:	3ff33333 	.word	0x3ff33333
    5810:	cccccccd 	.word	0xcccccccd
    5814:	4000cccc 	.word	0x4000cccc
    5818:	9999999a 	.word	0x9999999a
    581c:	40019999 	.word	0x40019999
    5820:	66666666 	.word	0x66666666
    5824:	3ff66666 	.word	0x3ff66666
    5828:	cccccccd 	.word	0xcccccccd
    582c:	3ff4cccc 	.word	0x3ff4cccc
    5830:	00000000 	.word	0x00000000
    5834:	3ff80000 	.word	0x3ff80000
    5838:	9999999a 	.word	0x9999999a
    583c:	3ff99999 	.word	0x3ff99999
    5840:	9999999a 	.word	0x9999999a
    5844:	3ff19999 	.word	0x3ff19999
    5848:	33333333 	.word	0x33333333
    584c:	3ff33333 	.word	0x3ff33333
    5850:	cccccccd 	.word	0xcccccccd
    5854:	4000cccc 	.word	0x4000cccc
    5858:	9999999a 	.word	0x9999999a
    585c:	40019999 	.word	0x40019999
    5860:	66666666 	.word	0x66666666
    5864:	3ff66666 	.word	0x3ff66666
    5868:	cccccccd 	.word	0xcccccccd
    586c:	3ff4cccc 	.word	0x3ff4cccc
    5870:	00000000 	.word	0x00000000
    5874:	3ff80000 	.word	0x3ff80000
    5878:	9999999a 	.word	0x9999999a
    587c:	3ff99999 	.word	0x3ff99999
    5880:	9999999a 	.word	0x9999999a
    5884:	3ff19999 	.word	0x3ff19999
    5888:	33333333 	.word	0x33333333
    588c:	3ff33333 	.word	0x3ff33333
    5890:	cccccccd 	.word	0xcccccccd
    5894:	4000cccc 	.word	0x4000cccc
    5898:	9999999a 	.word	0x9999999a
    589c:	40019999 	.word	0x40019999
    58a0:	66666666 	.word	0x66666666
    58a4:	3ff66666 	.word	0x3ff66666
    58a8:	cccccccd 	.word	0xcccccccd
    58ac:	3ff4cccc 	.word	0x3ff4cccc
    58b0:	00000000 	.word	0x00000000
    58b4:	3ff80000 	.word	0x3ff80000
    58b8:	9999999a 	.word	0x9999999a
    58bc:	3ff99999 	.word	0x3ff99999
    58c0:	9999999a 	.word	0x9999999a
    58c4:	3ff19999 	.word	0x3ff19999
    58c8:	33333333 	.word	0x33333333
    58cc:	3ff33333 	.word	0x3ff33333
    58d0:	cccccccd 	.word	0xcccccccd
    58d4:	4000cccc 	.word	0x4000cccc
    58d8:	9999999a 	.word	0x9999999a
    58dc:	40019999 	.word	0x40019999
    58e0:	66666666 	.word	0x66666666
    58e4:	3ff66666 	.word	0x3ff66666
    58e8:	cccccccd 	.word	0xcccccccd
    58ec:	3ff4cccc 	.word	0x3ff4cccc
    58f0:	00000000 	.word	0x00000000
    58f4:	3ff80000 	.word	0x3ff80000
    58f8:	9999999a 	.word	0x9999999a
    58fc:	3ff99999 	.word	0x3ff99999
    5900:	9999999a 	.word	0x9999999a
    5904:	3ff19999 	.word	0x3ff19999
    5908:	33333333 	.word	0x33333333
    590c:	3ff33333 	.word	0x3ff33333
    5910:	cccccccd 	.word	0xcccccccd
    5914:	4000cccc 	.word	0x4000cccc
    5918:	9999999a 	.word	0x9999999a
    591c:	40019999 	.word	0x40019999
    5920:	66666666 	.word	0x66666666
    5924:	3ff66666 	.word	0x3ff66666
    5928:	cccccccd 	.word	0xcccccccd
    592c:	3ff4cccc 	.word	0x3ff4cccc
    5930:	00000000 	.word	0x00000000
    5934:	3ff80000 	.word	0x3ff80000
    5938:	9999999a 	.word	0x9999999a
    593c:	3ff99999 	.word	0x3ff99999
    5940:	9999999a 	.word	0x9999999a
    5944:	3ff19999 	.word	0x3ff19999
    5948:	33333333 	.word	0x33333333
    594c:	3ff33333 	.word	0x3ff33333
    5950:	cccccccd 	.word	0xcccccccd
    5954:	4000cccc 	.word	0x4000cccc
    5958:	9999999a 	.word	0x9999999a
    595c:	40019999 	.word	0x40019999
    5960:	66666666 	.word	0x66666666
    5964:	3ff66666 	.word	0x3ff66666
    5968:	cccccccd 	.word	0xcccccccd
    596c:	3ff4cccc 	.word	0x3ff4cccc
    5970:	00000000 	.word	0x00000000
    5974:	3ff80000 	.word	0x3ff80000
    5978:	9999999a 	.word	0x9999999a
    597c:	3ff99999 	.word	0x3ff99999
    5980:	9999999a 	.word	0x9999999a
    5984:	3ff19999 	.word	0x3ff19999
    5988:	33333333 	.word	0x33333333
    598c:	3ff33333 	.word	0x3ff33333
    5990:	cccccccd 	.word	0xcccccccd
    5994:	4000cccc 	.word	0x4000cccc
    5998:	9999999a 	.word	0x9999999a
    599c:	40019999 	.word	0x40019999
    59a0:	66666666 	.word	0x66666666
    59a4:	3ff66666 	.word	0x3ff66666
    59a8:	cccccccd 	.word	0xcccccccd
    59ac:	3ff4cccc 	.word	0x3ff4cccc
    59b0:	00000000 	.word	0x00000000
    59b4:	3ff80000 	.word	0x3ff80000
    59b8:	9999999a 	.word	0x9999999a
    59bc:	3ff99999 	.word	0x3ff99999
    59c0:	9999999a 	.word	0x9999999a
    59c4:	3ff19999 	.word	0x3ff19999
    59c8:	33333333 	.word	0x33333333
    59cc:	3ff33333 	.word	0x3ff33333
    59d0:	cccccccd 	.word	0xcccccccd
    59d4:	4000cccc 	.word	0x4000cccc
    59d8:	9999999a 	.word	0x9999999a
    59dc:	40019999 	.word	0x40019999
    59e0:	66666666 	.word	0x66666666
    59e4:	3ff66666 	.word	0x3ff66666
    59e8:	cccccccd 	.word	0xcccccccd
    59ec:	3ff4cccc 	.word	0x3ff4cccc
    59f0:	00000000 	.word	0x00000000
    59f4:	3ff80000 	.word	0x3ff80000
    59f8:	9999999a 	.word	0x9999999a
    59fc:	3ff99999 	.word	0x3ff99999
    5a00:	9999999a 	.word	0x9999999a
    5a04:	3ff19999 	.word	0x3ff19999
    5a08:	33333333 	.word	0x33333333
    5a0c:	3ff33333 	.word	0x3ff33333
    5a10:	cccccccd 	.word	0xcccccccd
    5a14:	4000cccc 	.word	0x4000cccc
    5a18:	9999999a 	.word	0x9999999a
    5a1c:	40019999 	.word	0x40019999
    5a20:	66666666 	.word	0x66666666
    5a24:	3ff66666 	.word	0x3ff66666
    5a28:	cccccccd 	.word	0xcccccccd
    5a2c:	3ff4cccc 	.word	0x3ff4cccc
    5a30:	00000000 	.word	0x00000000
    5a34:	3ff80000 	.word	0x3ff80000
    5a38:	9999999a 	.word	0x9999999a
    5a3c:	3ff99999 	.word	0x3ff99999
    5a40:	9999999a 	.word	0x9999999a
    5a44:	3ff19999 	.word	0x3ff19999
    5a48:	33333333 	.word	0x33333333
    5a4c:	3ff33333 	.word	0x3ff33333
    5a50:	cccccccd 	.word	0xcccccccd
    5a54:	4000cccc 	.word	0x4000cccc
    5a58:	9999999a 	.word	0x9999999a
    5a5c:	40019999 	.word	0x40019999
    5a60:	66666666 	.word	0x66666666
    5a64:	3ff66666 	.word	0x3ff66666
    5a68:	cccccccd 	.word	0xcccccccd
    5a6c:	3ff4cccc 	.word	0x3ff4cccc
    5a70:	00000000 	.word	0x00000000
    5a74:	3ff80000 	.word	0x3ff80000
    5a78:	9999999a 	.word	0x9999999a
    5a7c:	3ff99999 	.word	0x3ff99999
    5a80:	9999999a 	.word	0x9999999a
    5a84:	3ff19999 	.word	0x3ff19999
    5a88:	33333333 	.word	0x33333333
    5a8c:	3ff33333 	.word	0x3ff33333
    5a90:	cccccccd 	.word	0xcccccccd
    5a94:	4000cccc 	.word	0x4000cccc
    5a98:	9999999a 	.word	0x9999999a
    5a9c:	40019999 	.word	0x40019999
    5aa0:	66666666 	.word	0x66666666
    5aa4:	3ff66666 	.word	0x3ff66666
    5aa8:	cccccccd 	.word	0xcccccccd
    5aac:	3ff4cccc 	.word	0x3ff4cccc
    5ab0:	00000000 	.word	0x00000000
    5ab4:	3ff80000 	.word	0x3ff80000
    5ab8:	9999999a 	.word	0x9999999a
    5abc:	3ff99999 	.word	0x3ff99999
    5ac0:	9999999a 	.word	0x9999999a
    5ac4:	3ff19999 	.word	0x3ff19999
    5ac8:	33333333 	.word	0x33333333
    5acc:	3ff33333 	.word	0x3ff33333
    5ad0:	cccccccd 	.word	0xcccccccd
    5ad4:	4000cccc 	.word	0x4000cccc
    5ad8:	9999999a 	.word	0x9999999a
    5adc:	40019999 	.word	0x40019999
    5ae0:	66666666 	.word	0x66666666
    5ae4:	3ff66666 	.word	0x3ff66666
    5ae8:	cccccccd 	.word	0xcccccccd
    5aec:	3ff4cccc 	.word	0x3ff4cccc
    5af0:	00000000 	.word	0x00000000
    5af4:	3ff80000 	.word	0x3ff80000
    5af8:	9999999a 	.word	0x9999999a
    5afc:	3ff99999 	.word	0x3ff99999
    5b00:	9999999a 	.word	0x9999999a
    5b04:	3ff19999 	.word	0x3ff19999
    5b08:	33333333 	.word	0x33333333
    5b0c:	3ff33333 	.word	0x3ff33333
    5b10:	cccccccd 	.word	0xcccccccd
    5b14:	4000cccc 	.word	0x4000cccc
    5b18:	9999999a 	.word	0x9999999a
    5b1c:	40019999 	.word	0x40019999
    5b20:	66666666 	.word	0x66666666
    5b24:	3ff66666 	.word	0x3ff66666
    5b28:	cccccccd 	.word	0xcccccccd
    5b2c:	3ff4cccc 	.word	0x3ff4cccc
    5b30:	00000000 	.word	0x00000000
    5b34:	3ff80000 	.word	0x3ff80000
    5b38:	9999999a 	.word	0x9999999a
    5b3c:	3ff99999 	.word	0x3ff99999
    5b40:	9999999a 	.word	0x9999999a
    5b44:	3ff19999 	.word	0x3ff19999
    5b48:	33333333 	.word	0x33333333
    5b4c:	3ff33333 	.word	0x3ff33333
    5b50:	cccccccd 	.word	0xcccccccd
    5b54:	4000cccc 	.word	0x4000cccc
    5b58:	9999999a 	.word	0x9999999a
    5b5c:	40019999 	.word	0x40019999
    5b60:	66666666 	.word	0x66666666
    5b64:	3ff66666 	.word	0x3ff66666
    5b68:	cccccccd 	.word	0xcccccccd
    5b6c:	3ff4cccc 	.word	0x3ff4cccc
    5b70:	00000000 	.word	0x00000000
    5b74:	3ff80000 	.word	0x3ff80000
    5b78:	9999999a 	.word	0x9999999a
    5b7c:	3ff99999 	.word	0x3ff99999
    5b80:	9999999a 	.word	0x9999999a
    5b84:	3ff19999 	.word	0x3ff19999
    5b88:	33333333 	.word	0x33333333
    5b8c:	3ff33333 	.word	0x3ff33333
    5b90:	cccccccd 	.word	0xcccccccd
    5b94:	4000cccc 	.word	0x4000cccc
    5b98:	9999999a 	.word	0x9999999a
    5b9c:	40019999 	.word	0x40019999
    5ba0:	66666666 	.word	0x66666666
    5ba4:	3ff66666 	.word	0x3ff66666
    5ba8:	cccccccd 	.word	0xcccccccd
    5bac:	3ff4cccc 	.word	0x3ff4cccc
    5bb0:	00000000 	.word	0x00000000
    5bb4:	3ff80000 	.word	0x3ff80000
    5bb8:	9999999a 	.word	0x9999999a
    5bbc:	3ff99999 	.word	0x3ff99999
    5bc0:	9999999a 	.word	0x9999999a
    5bc4:	3ff19999 	.word	0x3ff19999
    5bc8:	33333333 	.word	0x33333333
    5bcc:	3ff33333 	.word	0x3ff33333
    5bd0:	cccccccd 	.word	0xcccccccd
    5bd4:	4000cccc 	.word	0x4000cccc
    5bd8:	9999999a 	.word	0x9999999a
    5bdc:	40019999 	.word	0x40019999
    5be0:	66666666 	.word	0x66666666
    5be4:	3ff66666 	.word	0x3ff66666
    5be8:	cccccccd 	.word	0xcccccccd
    5bec:	3ff4cccc 	.word	0x3ff4cccc
    5bf0:	00000000 	.word	0x00000000
    5bf4:	3ff80000 	.word	0x3ff80000
    5bf8:	9999999a 	.word	0x9999999a
    5bfc:	3ff99999 	.word	0x3ff99999
    5c00:	9999999a 	.word	0x9999999a
    5c04:	3ff19999 	.word	0x3ff19999
    5c08:	33333333 	.word	0x33333333
    5c0c:	3ff33333 	.word	0x3ff33333
    5c10:	cccccccd 	.word	0xcccccccd
    5c14:	4000cccc 	.word	0x4000cccc
    5c18:	9999999a 	.word	0x9999999a
    5c1c:	40019999 	.word	0x40019999
    5c20:	66666666 	.word	0x66666666
    5c24:	3ff66666 	.word	0x3ff66666
    5c28:	cccccccd 	.word	0xcccccccd
    5c2c:	3ff4cccc 	.word	0x3ff4cccc
    5c30:	00000000 	.word	0x00000000
    5c34:	3ff80000 	.word	0x3ff80000
    5c38:	9999999a 	.word	0x9999999a
    5c3c:	3ff99999 	.word	0x3ff99999
    5c40:	9999999a 	.word	0x9999999a
    5c44:	3ff19999 	.word	0x3ff19999
    5c48:	33333333 	.word	0x33333333
    5c4c:	3ff33333 	.word	0x3ff33333
    5c50:	cccccccd 	.word	0xcccccccd
    5c54:	4000cccc 	.word	0x4000cccc
    5c58:	9999999a 	.word	0x9999999a
    5c5c:	40019999 	.word	0x40019999
    5c60:	66666666 	.word	0x66666666
    5c64:	3ff66666 	.word	0x3ff66666
    5c68:	cccccccd 	.word	0xcccccccd
    5c6c:	3ff4cccc 	.word	0x3ff4cccc
    5c70:	00000000 	.word	0x00000000
    5c74:	3ff80000 	.word	0x3ff80000
    5c78:	9999999a 	.word	0x9999999a
    5c7c:	3ff99999 	.word	0x3ff99999
    5c80:	9999999a 	.word	0x9999999a
    5c84:	3ff19999 	.word	0x3ff19999
    5c88:	33333333 	.word	0x33333333
    5c8c:	3ff33333 	.word	0x3ff33333
    5c90:	cccccccd 	.word	0xcccccccd
    5c94:	4000cccc 	.word	0x4000cccc
    5c98:	9999999a 	.word	0x9999999a
    5c9c:	40019999 	.word	0x40019999
    5ca0:	66666666 	.word	0x66666666
    5ca4:	3ff66666 	.word	0x3ff66666
    5ca8:	cccccccd 	.word	0xcccccccd
    5cac:	3ff4cccc 	.word	0x3ff4cccc
    5cb0:	00000000 	.word	0x00000000
    5cb4:	3ff80000 	.word	0x3ff80000
    5cb8:	9999999a 	.word	0x9999999a
    5cbc:	3ff99999 	.word	0x3ff99999
    5cc0:	9999999a 	.word	0x9999999a
    5cc4:	3ff19999 	.word	0x3ff19999
    5cc8:	33333333 	.word	0x33333333
    5ccc:	3ff33333 	.word	0x3ff33333
    5cd0:	cccccccd 	.word	0xcccccccd
    5cd4:	4000cccc 	.word	0x4000cccc
    5cd8:	9999999a 	.word	0x9999999a
    5cdc:	40019999 	.word	0x40019999
    5ce0:	66666666 	.word	0x66666666
    5ce4:	3ff66666 	.word	0x3ff66666
    5ce8:	cccccccd 	.word	0xcccccccd
    5cec:	3ff4cccc 	.word	0x3ff4cccc
    5cf0:	00000000 	.word	0x00000000
    5cf4:	3ff80000 	.word	0x3ff80000
    5cf8:	9999999a 	.word	0x9999999a
    5cfc:	3ff99999 	.word	0x3ff99999
    5d00:	9999999a 	.word	0x9999999a
    5d04:	3ff19999 	.word	0x3ff19999
    5d08:	33333333 	.word	0x33333333
    5d0c:	3ff33333 	.word	0x3ff33333
    5d10:	cccccccd 	.word	0xcccccccd
    5d14:	4000cccc 	.word	0x4000cccc
    5d18:	9999999a 	.word	0x9999999a
    5d1c:	40019999 	.word	0x40019999
    5d20:	66666666 	.word	0x66666666
    5d24:	3ff66666 	.word	0x3ff66666
    5d28:	cccccccd 	.word	0xcccccccd
    5d2c:	3ff4cccc 	.word	0x3ff4cccc
    5d30:	00000000 	.word	0x00000000
    5d34:	3ff80000 	.word	0x3ff80000
    5d38:	9999999a 	.word	0x9999999a
    5d3c:	3ff99999 	.word	0x3ff99999
    5d40:	9999999a 	.word	0x9999999a
    5d44:	3ff19999 	.word	0x3ff19999
    5d48:	33333333 	.word	0x33333333
    5d4c:	3ff33333 	.word	0x3ff33333
    5d50:	cccccccd 	.word	0xcccccccd
    5d54:	4000cccc 	.word	0x4000cccc
    5d58:	9999999a 	.word	0x9999999a
    5d5c:	40019999 	.word	0x40019999
    5d60:	66666666 	.word	0x66666666
    5d64:	3ff66666 	.word	0x3ff66666
    5d68:	cccccccd 	.word	0xcccccccd
    5d6c:	3ff4cccc 	.word	0x3ff4cccc
    5d70:	00000000 	.word	0x00000000
    5d74:	3ff80000 	.word	0x3ff80000
    5d78:	9999999a 	.word	0x9999999a
    5d7c:	3ff99999 	.word	0x3ff99999
    5d80:	9999999a 	.word	0x9999999a
    5d84:	3ff19999 	.word	0x3ff19999
    5d88:	33333333 	.word	0x33333333
    5d8c:	3ff33333 	.word	0x3ff33333
    5d90:	cccccccd 	.word	0xcccccccd
    5d94:	4000cccc 	.word	0x4000cccc
    5d98:	9999999a 	.word	0x9999999a
    5d9c:	40019999 	.word	0x40019999
    5da0:	66666666 	.word	0x66666666
    5da4:	3ff66666 	.word	0x3ff66666
    5da8:	cccccccd 	.word	0xcccccccd
    5dac:	3ff4cccc 	.word	0x3ff4cccc
    5db0:	00000000 	.word	0x00000000
    5db4:	3ff80000 	.word	0x3ff80000
    5db8:	9999999a 	.word	0x9999999a
    5dbc:	3ff99999 	.word	0x3ff99999
    5dc0:	9999999a 	.word	0x9999999a
    5dc4:	3ff19999 	.word	0x3ff19999
    5dc8:	33333333 	.word	0x33333333
    5dcc:	3ff33333 	.word	0x3ff33333
    5dd0:	cccccccd 	.word	0xcccccccd
    5dd4:	4000cccc 	.word	0x4000cccc
    5dd8:	9999999a 	.word	0x9999999a
    5ddc:	40019999 	.word	0x40019999
    5de0:	66666666 	.word	0x66666666
    5de4:	3ff66666 	.word	0x3ff66666
    5de8:	cccccccd 	.word	0xcccccccd
    5dec:	3ff4cccc 	.word	0x3ff4cccc
    5df0:	00000000 	.word	0x00000000
    5df4:	3ff80000 	.word	0x3ff80000
    5df8:	9999999a 	.word	0x9999999a
    5dfc:	3ff99999 	.word	0x3ff99999
    5e00:	9999999a 	.word	0x9999999a
    5e04:	3ff19999 	.word	0x3ff19999
    5e08:	33333333 	.word	0x33333333
    5e0c:	3ff33333 	.word	0x3ff33333
    5e10:	cccccccd 	.word	0xcccccccd
    5e14:	4000cccc 	.word	0x4000cccc
    5e18:	9999999a 	.word	0x9999999a
    5e1c:	40019999 	.word	0x40019999
    5e20:	66666666 	.word	0x66666666
    5e24:	3ff66666 	.word	0x3ff66666
    5e28:	cccccccd 	.word	0xcccccccd
    5e2c:	3ff4cccc 	.word	0x3ff4cccc
    5e30:	00000000 	.word	0x00000000
    5e34:	3ff80000 	.word	0x3ff80000
    5e38:	9999999a 	.word	0x9999999a
    5e3c:	3ff99999 	.word	0x3ff99999
    5e40:	9999999a 	.word	0x9999999a
    5e44:	3ff19999 	.word	0x3ff19999
    5e48:	33333333 	.word	0x33333333
    5e4c:	3ff33333 	.word	0x3ff33333
    5e50:	cccccccd 	.word	0xcccccccd
    5e54:	4000cccc 	.word	0x4000cccc
    5e58:	9999999a 	.word	0x9999999a
    5e5c:	40019999 	.word	0x40019999
    5e60:	66666666 	.word	0x66666666
    5e64:	3ff66666 	.word	0x3ff66666
    5e68:	cccccccd 	.word	0xcccccccd
    5e6c:	3ff4cccc 	.word	0x3ff4cccc
    5e70:	00000000 	.word	0x00000000
    5e74:	3ff80000 	.word	0x3ff80000
    5e78:	9999999a 	.word	0x9999999a
    5e7c:	3ff99999 	.word	0x3ff99999
    5e80:	9999999a 	.word	0x9999999a
    5e84:	3ff19999 	.word	0x3ff19999
    5e88:	33333333 	.word	0x33333333
    5e8c:	3ff33333 	.word	0x3ff33333
    5e90:	cccccccd 	.word	0xcccccccd
    5e94:	4000cccc 	.word	0x4000cccc
    5e98:	9999999a 	.word	0x9999999a
    5e9c:	40019999 	.word	0x40019999
    5ea0:	66666666 	.word	0x66666666
    5ea4:	3ff66666 	.word	0x3ff66666
    5ea8:	cccccccd 	.word	0xcccccccd
    5eac:	3ff4cccc 	.word	0x3ff4cccc
    5eb0:	00000000 	.word	0x00000000
    5eb4:	3ff80000 	.word	0x3ff80000
    5eb8:	9999999a 	.word	0x9999999a
    5ebc:	3ff99999 	.word	0x3ff99999
    5ec0:	9999999a 	.word	0x9999999a
    5ec4:	3ff19999 	.word	0x3ff19999
    5ec8:	33333333 	.word	0x33333333
    5ecc:	3ff33333 	.word	0x3ff33333
    5ed0:	cccccccd 	.word	0xcccccccd
    5ed4:	4000cccc 	.word	0x4000cccc
    5ed8:	9999999a 	.word	0x9999999a
    5edc:	40019999 	.word	0x40019999
    5ee0:	66666666 	.word	0x66666666
    5ee4:	3ff66666 	.word	0x3ff66666
    5ee8:	cccccccd 	.word	0xcccccccd
    5eec:	3ff4cccc 	.word	0x3ff4cccc
    5ef0:	00000000 	.word	0x00000000
    5ef4:	3ff80000 	.word	0x3ff80000
    5ef8:	9999999a 	.word	0x9999999a
    5efc:	3ff99999 	.word	0x3ff99999
    5f00:	9999999a 	.word	0x9999999a
    5f04:	3ff19999 	.word	0x3ff19999
    5f08:	33333333 	.word	0x33333333
    5f0c:	3ff33333 	.word	0x3ff33333
    5f10:	cccccccd 	.word	0xcccccccd
    5f14:	4000cccc 	.word	0x4000cccc
    5f18:	9999999a 	.word	0x9999999a
    5f1c:	40019999 	.word	0x40019999
    5f20:	66666666 	.word	0x66666666
    5f24:	3ff66666 	.word	0x3ff66666
    5f28:	cccccccd 	.word	0xcccccccd
    5f2c:	3ff4cccc 	.word	0x3ff4cccc
    5f30:	00000000 	.word	0x00000000
    5f34:	3ff80000 	.word	0x3ff80000
    5f38:	9999999a 	.word	0x9999999a
    5f3c:	3ff99999 	.word	0x3ff99999
    5f40:	9999999a 	.word	0x9999999a
    5f44:	3ff19999 	.word	0x3ff19999
    5f48:	33333333 	.word	0x33333333
    5f4c:	3ff33333 	.word	0x3ff33333
    5f50:	cccccccd 	.word	0xcccccccd
    5f54:	4000cccc 	.word	0x4000cccc
    5f58:	9999999a 	.word	0x9999999a
    5f5c:	40019999 	.word	0x40019999
    5f60:	66666666 	.word	0x66666666
    5f64:	3ff66666 	.word	0x3ff66666
    5f68:	cccccccd 	.word	0xcccccccd
    5f6c:	3ff4cccc 	.word	0x3ff4cccc
    5f70:	00000000 	.word	0x00000000
    5f74:	3ff80000 	.word	0x3ff80000
    5f78:	9999999a 	.word	0x9999999a
    5f7c:	3ff99999 	.word	0x3ff99999
    5f80:	9999999a 	.word	0x9999999a
    5f84:	3ff19999 	.word	0x3ff19999
    5f88:	33333333 	.word	0x33333333
    5f8c:	3ff33333 	.word	0x3ff33333
    5f90:	cccccccd 	.word	0xcccccccd
    5f94:	4000cccc 	.word	0x4000cccc
    5f98:	9999999a 	.word	0x9999999a
    5f9c:	40019999 	.word	0x40019999
    5fa0:	66666666 	.word	0x66666666
    5fa4:	3ff66666 	.word	0x3ff66666
    5fa8:	cccccccd 	.word	0xcccccccd
    5fac:	3ff4cccc 	.word	0x3ff4cccc
    5fb0:	00000000 	.word	0x00000000
    5fb4:	3ff80000 	.word	0x3ff80000
    5fb8:	9999999a 	.word	0x9999999a
    5fbc:	3ff99999 	.word	0x3ff99999
    5fc0:	9999999a 	.word	0x9999999a
    5fc4:	3ff19999 	.word	0x3ff19999
    5fc8:	33333333 	.word	0x33333333
    5fcc:	3ff33333 	.word	0x3ff33333
    5fd0:	cccccccd 	.word	0xcccccccd
    5fd4:	4000cccc 	.word	0x4000cccc
    5fd8:	9999999a 	.word	0x9999999a
    5fdc:	40019999 	.word	0x40019999
    5fe0:	66666666 	.word	0x66666666
    5fe4:	3ff66666 	.word	0x3ff66666
    5fe8:	cccccccd 	.word	0xcccccccd
    5fec:	3ff4cccc 	.word	0x3ff4cccc
    5ff0:	00000000 	.word	0x00000000
    5ff4:	3ff80000 	.word	0x3ff80000
    5ff8:	9999999a 	.word	0x9999999a
    5ffc:	3ff99999 	.word	0x3ff99999
    6000:	9999999a 	.word	0x9999999a
    6004:	3ff19999 	.word	0x3ff19999
    6008:	33333333 	.word	0x33333333
    600c:	3ff33333 	.word	0x3ff33333
    6010:	cccccccd 	.word	0xcccccccd
    6014:	4000cccc 	.word	0x4000cccc
    6018:	9999999a 	.word	0x9999999a
    601c:	40019999 	.word	0x40019999
    6020:	66666666 	.word	0x66666666
    6024:	3ff66666 	.word	0x3ff66666
    6028:	cccccccd 	.word	0xcccccccd
    602c:	3ff4cccc 	.word	0x3ff4cccc
    6030:	00000000 	.word	0x00000000
    6034:	3ff80000 	.word	0x3ff80000
    6038:	9999999a 	.word	0x9999999a
    603c:	3ff99999 	.word	0x3ff99999
    6040:	9999999a 	.word	0x9999999a
    6044:	3ff19999 	.word	0x3ff19999
    6048:	33333333 	.word	0x33333333
    604c:	3ff33333 	.word	0x3ff33333
    6050:	cccccccd 	.word	0xcccccccd
    6054:	4000cccc 	.word	0x4000cccc
    6058:	9999999a 	.word	0x9999999a
    605c:	40019999 	.word	0x40019999
    6060:	66666666 	.word	0x66666666
    6064:	3ff66666 	.word	0x3ff66666
    6068:	cccccccd 	.word	0xcccccccd
    606c:	3ff4cccc 	.word	0x3ff4cccc
    6070:	00000000 	.word	0x00000000
    6074:	3ff80000 	.word	0x3ff80000
    6078:	9999999a 	.word	0x9999999a
    607c:	3ff99999 	.word	0x3ff99999
    6080:	9999999a 	.word	0x9999999a
    6084:	3ff19999 	.word	0x3ff19999
    6088:	33333333 	.word	0x33333333
    608c:	3ff33333 	.word	0x3ff33333
    6090:	cccccccd 	.word	0xcccccccd
    6094:	4000cccc 	.word	0x4000cccc
    6098:	9999999a 	.word	0x9999999a
    609c:	40019999 	.word	0x40019999
    60a0:	66666666 	.word	0x66666666
    60a4:	3ff66666 	.word	0x3ff66666
    60a8:	cccccccd 	.word	0xcccccccd
    60ac:	3ff4cccc 	.word	0x3ff4cccc
    60b0:	00000000 	.word	0x00000000
    60b4:	3ff80000 	.word	0x3ff80000
    60b8:	9999999a 	.word	0x9999999a
    60bc:	3ff99999 	.word	0x3ff99999
    60c0:	9999999a 	.word	0x9999999a
    60c4:	3ff19999 	.word	0x3ff19999
    60c8:	33333333 	.word	0x33333333
    60cc:	3ff33333 	.word	0x3ff33333
    60d0:	cccccccd 	.word	0xcccccccd
    60d4:	4000cccc 	.word	0x4000cccc
    60d8:	9999999a 	.word	0x9999999a
    60dc:	40019999 	.word	0x40019999
    60e0:	66666666 	.word	0x66666666
    60e4:	3ff66666 	.word	0x3ff66666
    60e8:	cccccccd 	.word	0xcccccccd
    60ec:	3ff4cccc 	.word	0x3ff4cccc
    60f0:	00000000 	.word	0x00000000
    60f4:	3ff80000 	.word	0x3ff80000
    60f8:	9999999a 	.word	0x9999999a
    60fc:	3ff99999 	.word	0x3ff99999
    6100:	9999999a 	.word	0x9999999a
    6104:	3ff19999 	.word	0x3ff19999
    6108:	33333333 	.word	0x33333333
    610c:	3ff33333 	.word	0x3ff33333
    6110:	cccccccd 	.word	0xcccccccd
    6114:	4000cccc 	.word	0x4000cccc
    6118:	9999999a 	.word	0x9999999a
    611c:	40019999 	.word	0x40019999
    6120:	66666666 	.word	0x66666666
    6124:	3ff66666 	.word	0x3ff66666
    6128:	cccccccd 	.word	0xcccccccd
    612c:	3ff4cccc 	.word	0x3ff4cccc
    6130:	00000000 	.word	0x00000000
    6134:	3ff80000 	.word	0x3ff80000
    6138:	9999999a 	.word	0x9999999a
    613c:	3ff99999 	.word	0x3ff99999
    6140:	9999999a 	.word	0x9999999a
    6144:	3ff19999 	.word	0x3ff19999
    6148:	33333333 	.word	0x33333333
    614c:	3ff33333 	.word	0x3ff33333
    6150:	cccccccd 	.word	0xcccccccd
    6154:	4000cccc 	.word	0x4000cccc
    6158:	9999999a 	.word	0x9999999a
    615c:	40019999 	.word	0x40019999
    6160:	66666666 	.word	0x66666666
    6164:	3ff66666 	.word	0x3ff66666
    6168:	cccccccd 	.word	0xcccccccd
    616c:	3ff4cccc 	.word	0x3ff4cccc
    6170:	00000000 	.word	0x00000000
    6174:	3ff80000 	.word	0x3ff80000
    6178:	9999999a 	.word	0x9999999a
    617c:	3ff99999 	.word	0x3ff99999
    6180:	9999999a 	.word	0x9999999a
    6184:	3ff19999 	.word	0x3ff19999
    6188:	33333333 	.word	0x33333333
    618c:	3ff33333 	.word	0x3ff33333
    6190:	cccccccd 	.word	0xcccccccd
    6194:	4000cccc 	.word	0x4000cccc
    6198:	9999999a 	.word	0x9999999a
    619c:	40019999 	.word	0x40019999
    61a0:	66666666 	.word	0x66666666
    61a4:	3ff66666 	.word	0x3ff66666
    61a8:	cccccccd 	.word	0xcccccccd
    61ac:	3ff4cccc 	.word	0x3ff4cccc
    61b0:	00000000 	.word	0x00000000
    61b4:	3ff80000 	.word	0x3ff80000
    61b8:	9999999a 	.word	0x9999999a
    61bc:	3ff99999 	.word	0x3ff99999
    61c0:	9999999a 	.word	0x9999999a
    61c4:	3ff19999 	.word	0x3ff19999
    61c8:	33333333 	.word	0x33333333
    61cc:	3ff33333 	.word	0x3ff33333
    61d0:	cccccccd 	.word	0xcccccccd
    61d4:	4000cccc 	.word	0x4000cccc
    61d8:	9999999a 	.word	0x9999999a
    61dc:	40019999 	.word	0x40019999
    61e0:	66666666 	.word	0x66666666
    61e4:	3ff66666 	.word	0x3ff66666
    61e8:	cccccccd 	.word	0xcccccccd
    61ec:	3ff4cccc 	.word	0x3ff4cccc
    61f0:	00000000 	.word	0x00000000
    61f4:	3ff80000 	.word	0x3ff80000
    61f8:	9999999a 	.word	0x9999999a
    61fc:	3ff99999 	.word	0x3ff99999
    6200:	9999999a 	.word	0x9999999a
    6204:	3ff19999 	.word	0x3ff19999
    6208:	33333333 	.word	0x33333333
    620c:	3ff33333 	.word	0x3ff33333
    6210:	cccccccd 	.word	0xcccccccd
    6214:	4000cccc 	.word	0x4000cccc
    6218:	9999999a 	.word	0x9999999a
    621c:	40019999 	.word	0x40019999
    6220:	66666666 	.word	0x66666666
    6224:	3ff66666 	.word	0x3ff66666
    6228:	cccccccd 	.word	0xcccccccd
    622c:	3ff4cccc 	.word	0x3ff4cccc
    6230:	00000000 	.word	0x00000000
    6234:	3ff80000 	.word	0x3ff80000
    6238:	9999999a 	.word	0x9999999a
    623c:	3ff99999 	.word	0x3ff99999
    6240:	9999999a 	.word	0x9999999a
    6244:	3ff19999 	.word	0x3ff19999
    6248:	33333333 	.word	0x33333333
    624c:	3ff33333 	.word	0x3ff33333
    6250:	cccccccd 	.word	0xcccccccd
    6254:	4000cccc 	.word	0x4000cccc
    6258:	9999999a 	.word	0x9999999a
    625c:	40019999 	.word	0x40019999
    6260:	66666666 	.word	0x66666666
    6264:	3ff66666 	.word	0x3ff66666
    6268:	cccccccd 	.word	0xcccccccd
    626c:	3ff4cccc 	.word	0x3ff4cccc
    6270:	00000000 	.word	0x00000000
    6274:	3ff80000 	.word	0x3ff80000
    6278:	9999999a 	.word	0x9999999a
    627c:	3ff99999 	.word	0x3ff99999
    6280:	9999999a 	.word	0x9999999a
    6284:	3ff19999 	.word	0x3ff19999
    6288:	33333333 	.word	0x33333333
    628c:	3ff33333 	.word	0x3ff33333
    6290:	cccccccd 	.word	0xcccccccd
    6294:	4000cccc 	.word	0x4000cccc
    6298:	9999999a 	.word	0x9999999a
    629c:	40019999 	.word	0x40019999
    62a0:	66666666 	.word	0x66666666
    62a4:	3ff66666 	.word	0x3ff66666
    62a8:	cccccccd 	.word	0xcccccccd
    62ac:	3ff4cccc 	.word	0x3ff4cccc
    62b0:	00000000 	.word	0x00000000
    62b4:	3ff80000 	.word	0x3ff80000
    62b8:	9999999a 	.word	0x9999999a
    62bc:	3ff99999 	.word	0x3ff99999
    62c0:	9999999a 	.word	0x9999999a
    62c4:	3ff19999 	.word	0x3ff19999
    62c8:	33333333 	.word	0x33333333
    62cc:	3ff33333 	.word	0x3ff33333
    62d0:	cccccccd 	.word	0xcccccccd
    62d4:	4000cccc 	.word	0x4000cccc
    62d8:	9999999a 	.word	0x9999999a
    62dc:	40019999 	.word	0x40019999
    62e0:	66666666 	.word	0x66666666
    62e4:	3ff66666 	.word	0x3ff66666
    62e8:	cccccccd 	.word	0xcccccccd
    62ec:	3ff4cccc 	.word	0x3ff4cccc
    62f0:	00000000 	.word	0x00000000
    62f4:	3ff80000 	.word	0x3ff80000
    62f8:	9999999a 	.word	0x9999999a
    62fc:	3ff99999 	.word	0x3ff99999
    6300:	9999999a 	.word	0x9999999a
    6304:	3ff19999 	.word	0x3ff19999
    6308:	33333333 	.word	0x33333333
    630c:	3ff33333 	.word	0x3ff33333
    6310:	cccccccd 	.word	0xcccccccd
    6314:	4000cccc 	.word	0x4000cccc
    6318:	9999999a 	.word	0x9999999a
    631c:	40019999 	.word	0x40019999
    6320:	66666666 	.word	0x66666666
    6324:	3ff66666 	.word	0x3ff66666
    6328:	cccccccd 	.word	0xcccccccd
    632c:	3ff4cccc 	.word	0x3ff4cccc
    6330:	00000000 	.word	0x00000000
    6334:	3ff80000 	.word	0x3ff80000
    6338:	9999999a 	.word	0x9999999a
    633c:	3ff99999 	.word	0x3ff99999
    6340:	9999999a 	.word	0x9999999a
    6344:	3ff19999 	.word	0x3ff19999
    6348:	33333333 	.word	0x33333333
    634c:	3ff33333 	.word	0x3ff33333
    6350:	cccccccd 	.word	0xcccccccd
    6354:	4000cccc 	.word	0x4000cccc
    6358:	9999999a 	.word	0x9999999a
    635c:	40019999 	.word	0x40019999
    6360:	66666666 	.word	0x66666666
    6364:	3ff66666 	.word	0x3ff66666
    6368:	cccccccd 	.word	0xcccccccd
    636c:	3ff4cccc 	.word	0x3ff4cccc
    6370:	00000000 	.word	0x00000000
    6374:	3ff80000 	.word	0x3ff80000
    6378:	9999999a 	.word	0x9999999a
    637c:	3ff99999 	.word	0x3ff99999
    6380:	9999999a 	.word	0x9999999a
    6384:	3ff19999 	.word	0x3ff19999
    6388:	33333333 	.word	0x33333333
    638c:	3ff33333 	.word	0x3ff33333
    6390:	cccccccd 	.word	0xcccccccd
    6394:	4000cccc 	.word	0x4000cccc
    6398:	9999999a 	.word	0x9999999a
    639c:	40019999 	.word	0x40019999
    63a0:	66666666 	.word	0x66666666
    63a4:	3ff66666 	.word	0x3ff66666
    63a8:	cccccccd 	.word	0xcccccccd
    63ac:	3ff4cccc 	.word	0x3ff4cccc
    63b0:	00000000 	.word	0x00000000
    63b4:	3ff80000 	.word	0x3ff80000
    63b8:	9999999a 	.word	0x9999999a
    63bc:	3ff99999 	.word	0x3ff99999
    63c0:	9999999a 	.word	0x9999999a
    63c4:	3ff19999 	.word	0x3ff19999
    63c8:	33333333 	.word	0x33333333
    63cc:	3ff33333 	.word	0x3ff33333
    63d0:	cccccccd 	.word	0xcccccccd
    63d4:	4000cccc 	.word	0x4000cccc
    63d8:	9999999a 	.word	0x9999999a
    63dc:	40019999 	.word	0x40019999
    63e0:	66666666 	.word	0x66666666
    63e4:	3ff66666 	.word	0x3ff66666
    63e8:	cccccccd 	.word	0xcccccccd
    63ec:	3ff4cccc 	.word	0x3ff4cccc
    63f0:	00000000 	.word	0x00000000
    63f4:	3ff80000 	.word	0x3ff80000
    63f8:	9999999a 	.word	0x9999999a
    63fc:	3ff99999 	.word	0x3ff99999
    6400:	9999999a 	.word	0x9999999a
    6404:	3ff19999 	.word	0x3ff19999
    6408:	33333333 	.word	0x33333333
    640c:	3ff33333 	.word	0x3ff33333
    6410:	cccccccd 	.word	0xcccccccd
    6414:	4000cccc 	.word	0x4000cccc
    6418:	9999999a 	.word	0x9999999a
    641c:	40019999 	.word	0x40019999
    6420:	66666666 	.word	0x66666666
    6424:	3ff66666 	.word	0x3ff66666
    6428:	cccccccd 	.word	0xcccccccd
    642c:	3ff4cccc 	.word	0x3ff4cccc
    6430:	00000000 	.word	0x00000000
    6434:	3ff80000 	.word	0x3ff80000
    6438:	9999999a 	.word	0x9999999a
    643c:	3ff99999 	.word	0x3ff99999
    6440:	9999999a 	.word	0x9999999a
    6444:	3ff19999 	.word	0x3ff19999
    6448:	33333333 	.word	0x33333333
    644c:	3ff33333 	.word	0x3ff33333
    6450:	cccccccd 	.word	0xcccccccd
    6454:	4000cccc 	.word	0x4000cccc
    6458:	9999999a 	.word	0x9999999a
    645c:	40019999 	.word	0x40019999
    6460:	66666666 	.word	0x66666666
    6464:	3ff66666 	.word	0x3ff66666
    6468:	cccccccd 	.word	0xcccccccd
    646c:	3ff4cccc 	.word	0x3ff4cccc
    6470:	00000000 	.word	0x00000000
    6474:	3ff80000 	.word	0x3ff80000
    6478:	9999999a 	.word	0x9999999a
    647c:	3ff99999 	.word	0x3ff99999
    6480:	9999999a 	.word	0x9999999a
    6484:	3ff19999 	.word	0x3ff19999
    6488:	33333333 	.word	0x33333333
    648c:	3ff33333 	.word	0x3ff33333
    6490:	cccccccd 	.word	0xcccccccd
    6494:	4000cccc 	.word	0x4000cccc
    6498:	9999999a 	.word	0x9999999a
    649c:	40019999 	.word	0x40019999
    64a0:	66666666 	.word	0x66666666
    64a4:	3ff66666 	.word	0x3ff66666
    64a8:	cccccccd 	.word	0xcccccccd
    64ac:	3ff4cccc 	.word	0x3ff4cccc
    64b0:	00000000 	.word	0x00000000
    64b4:	3ff80000 	.word	0x3ff80000
    64b8:	9999999a 	.word	0x9999999a
    64bc:	3ff99999 	.word	0x3ff99999
    64c0:	9999999a 	.word	0x9999999a
    64c4:	3ff19999 	.word	0x3ff19999
    64c8:	33333333 	.word	0x33333333
    64cc:	3ff33333 	.word	0x3ff33333
    64d0:	cccccccd 	.word	0xcccccccd
    64d4:	4000cccc 	.word	0x4000cccc
    64d8:	9999999a 	.word	0x9999999a
    64dc:	40019999 	.word	0x40019999
    64e0:	66666666 	.word	0x66666666
    64e4:	3ff66666 	.word	0x3ff66666
    64e8:	cccccccd 	.word	0xcccccccd
    64ec:	3ff4cccc 	.word	0x3ff4cccc
    64f0:	00000000 	.word	0x00000000
    64f4:	3ff80000 	.word	0x3ff80000
    64f8:	9999999a 	.word	0x9999999a
    64fc:	3ff99999 	.word	0x3ff99999
    6500:	9999999a 	.word	0x9999999a
    6504:	3ff19999 	.word	0x3ff19999
    6508:	33333333 	.word	0x33333333
    650c:	3ff33333 	.word	0x3ff33333
    6510:	cccccccd 	.word	0xcccccccd
    6514:	4000cccc 	.word	0x4000cccc
    6518:	9999999a 	.word	0x9999999a
    651c:	40019999 	.word	0x40019999
    6520:	66666666 	.word	0x66666666
    6524:	3ff66666 	.word	0x3ff66666
    6528:	cccccccd 	.word	0xcccccccd
    652c:	3ff4cccc 	.word	0x3ff4cccc
    6530:	00000000 	.word	0x00000000
    6534:	3ff80000 	.word	0x3ff80000
    6538:	9999999a 	.word	0x9999999a
    653c:	3ff99999 	.word	0x3ff99999
    6540:	9999999a 	.word	0x9999999a
    6544:	3ff19999 	.word	0x3ff19999
    6548:	33333333 	.word	0x33333333
    654c:	3ff33333 	.word	0x3ff33333
    6550:	cccccccd 	.word	0xcccccccd
    6554:	4000cccc 	.word	0x4000cccc
    6558:	9999999a 	.word	0x9999999a
    655c:	40019999 	.word	0x40019999
    6560:	66666666 	.word	0x66666666
    6564:	3ff66666 	.word	0x3ff66666
    6568:	cccccccd 	.word	0xcccccccd
    656c:	3ff4cccc 	.word	0x3ff4cccc
    6570:	00000000 	.word	0x00000000
    6574:	3ff80000 	.word	0x3ff80000
    6578:	9999999a 	.word	0x9999999a
    657c:	3ff99999 	.word	0x3ff99999
    6580:	9999999a 	.word	0x9999999a
    6584:	3ff19999 	.word	0x3ff19999
    6588:	33333333 	.word	0x33333333
    658c:	3ff33333 	.word	0x3ff33333
    6590:	cccccccd 	.word	0xcccccccd
    6594:	4000cccc 	.word	0x4000cccc
    6598:	9999999a 	.word	0x9999999a
    659c:	40019999 	.word	0x40019999
    65a0:	66666666 	.word	0x66666666
    65a4:	3ff66666 	.word	0x3ff66666
    65a8:	cccccccd 	.word	0xcccccccd
    65ac:	3ff4cccc 	.word	0x3ff4cccc
    65b0:	00000000 	.word	0x00000000
    65b4:	3ff80000 	.word	0x3ff80000
    65b8:	9999999a 	.word	0x9999999a
    65bc:	3ff99999 	.word	0x3ff99999
    65c0:	9999999a 	.word	0x9999999a
    65c4:	3ff19999 	.word	0x3ff19999
    65c8:	33333333 	.word	0x33333333
    65cc:	3ff33333 	.word	0x3ff33333
    65d0:	cccccccd 	.word	0xcccccccd
    65d4:	4000cccc 	.word	0x4000cccc
    65d8:	9999999a 	.word	0x9999999a
    65dc:	40019999 	.word	0x40019999
    65e0:	66666666 	.word	0x66666666
    65e4:	3ff66666 	.word	0x3ff66666
    65e8:	cccccccd 	.word	0xcccccccd
    65ec:	3ff4cccc 	.word	0x3ff4cccc
    65f0:	00000000 	.word	0x00000000
    65f4:	3ff80000 	.word	0x3ff80000
    65f8:	9999999a 	.word	0x9999999a
    65fc:	3ff99999 	.word	0x3ff99999
    6600:	9999999a 	.word	0x9999999a
    6604:	3ff19999 	.word	0x3ff19999
    6608:	33333333 	.word	0x33333333
    660c:	3ff33333 	.word	0x3ff33333
    6610:	cccccccd 	.word	0xcccccccd
    6614:	4000cccc 	.word	0x4000cccc
    6618:	9999999a 	.word	0x9999999a
    661c:	40019999 	.word	0x40019999
    6620:	66666666 	.word	0x66666666
    6624:	3ff66666 	.word	0x3ff66666
    6628:	cccccccd 	.word	0xcccccccd
    662c:	3ff4cccc 	.word	0x3ff4cccc
    6630:	00000000 	.word	0x00000000
    6634:	3ff80000 	.word	0x3ff80000
    6638:	9999999a 	.word	0x9999999a
    663c:	3ff99999 	.word	0x3ff99999
    6640:	9999999a 	.word	0x9999999a
    6644:	3ff19999 	.word	0x3ff19999
    6648:	33333333 	.word	0x33333333
    664c:	3ff33333 	.word	0x3ff33333
    6650:	cccccccd 	.word	0xcccccccd
    6654:	4000cccc 	.word	0x4000cccc
    6658:	9999999a 	.word	0x9999999a
    665c:	40019999 	.word	0x40019999
    6660:	66666666 	.word	0x66666666
    6664:	3ff66666 	.word	0x3ff66666
    6668:	cccccccd 	.word	0xcccccccd
    666c:	3ff4cccc 	.word	0x3ff4cccc
    6670:	00000000 	.word	0x00000000
    6674:	3ff80000 	.word	0x3ff80000
    6678:	9999999a 	.word	0x9999999a
    667c:	3ff99999 	.word	0x3ff99999
    6680:	9999999a 	.word	0x9999999a
    6684:	3ff19999 	.word	0x3ff19999
    6688:	33333333 	.word	0x33333333
    668c:	3ff33333 	.word	0x3ff33333
    6690:	cccccccd 	.word	0xcccccccd
    6694:	4000cccc 	.word	0x4000cccc
    6698:	9999999a 	.word	0x9999999a
    669c:	40019999 	.word	0x40019999
    66a0:	66666666 	.word	0x66666666
    66a4:	3ff66666 	.word	0x3ff66666
    66a8:	cccccccd 	.word	0xcccccccd
    66ac:	3ff4cccc 	.word	0x3ff4cccc
    66b0:	00000000 	.word	0x00000000
    66b4:	3ff80000 	.word	0x3ff80000
    66b8:	9999999a 	.word	0x9999999a
    66bc:	3ff99999 	.word	0x3ff99999
    66c0:	9999999a 	.word	0x9999999a
    66c4:	3ff19999 	.word	0x3ff19999
    66c8:	33333333 	.word	0x33333333
    66cc:	3ff33333 	.word	0x3ff33333
    66d0:	cccccccd 	.word	0xcccccccd
    66d4:	4000cccc 	.word	0x4000cccc
    66d8:	9999999a 	.word	0x9999999a
    66dc:	40019999 	.word	0x40019999
    66e0:	66666666 	.word	0x66666666
    66e4:	3ff66666 	.word	0x3ff66666
    66e8:	cccccccd 	.word	0xcccccccd
    66ec:	3ff4cccc 	.word	0x3ff4cccc
    66f0:	00000000 	.word	0x00000000
    66f4:	3ff80000 	.word	0x3ff80000
    66f8:	9999999a 	.word	0x9999999a
    66fc:	3ff99999 	.word	0x3ff99999
    6700:	9999999a 	.word	0x9999999a
    6704:	3ff19999 	.word	0x3ff19999
    6708:	33333333 	.word	0x33333333
    670c:	3ff33333 	.word	0x3ff33333
    6710:	cccccccd 	.word	0xcccccccd
    6714:	4000cccc 	.word	0x4000cccc
    6718:	9999999a 	.word	0x9999999a
    671c:	40019999 	.word	0x40019999
    6720:	66666666 	.word	0x66666666
    6724:	3ff66666 	.word	0x3ff66666
    6728:	cccccccd 	.word	0xcccccccd
    672c:	3ff4cccc 	.word	0x3ff4cccc
    6730:	00000000 	.word	0x00000000
    6734:	3ff80000 	.word	0x3ff80000
    6738:	9999999a 	.word	0x9999999a
    673c:	3ff99999 	.word	0x3ff99999
    6740:	9999999a 	.word	0x9999999a
    6744:	3ff19999 	.word	0x3ff19999
    6748:	33333333 	.word	0x33333333
    674c:	3ff33333 	.word	0x3ff33333
    6750:	cccccccd 	.word	0xcccccccd
    6754:	4000cccc 	.word	0x4000cccc
    6758:	9999999a 	.word	0x9999999a
    675c:	40019999 	.word	0x40019999
    6760:	66666666 	.word	0x66666666
    6764:	3ff66666 	.word	0x3ff66666
    6768:	cccccccd 	.word	0xcccccccd
    676c:	3ff4cccc 	.word	0x3ff4cccc
    6770:	00000000 	.word	0x00000000
    6774:	3ff80000 	.word	0x3ff80000
    6778:	9999999a 	.word	0x9999999a
    677c:	3ff99999 	.word	0x3ff99999
    6780:	9999999a 	.word	0x9999999a
    6784:	3ff19999 	.word	0x3ff19999
    6788:	33333333 	.word	0x33333333
    678c:	3ff33333 	.word	0x3ff33333
    6790:	cccccccd 	.word	0xcccccccd
    6794:	4000cccc 	.word	0x4000cccc
    6798:	9999999a 	.word	0x9999999a
    679c:	40019999 	.word	0x40019999
    67a0:	66666666 	.word	0x66666666
    67a4:	3ff66666 	.word	0x3ff66666
    67a8:	cccccccd 	.word	0xcccccccd
    67ac:	3ff4cccc 	.word	0x3ff4cccc
    67b0:	00000000 	.word	0x00000000
    67b4:	3ff80000 	.word	0x3ff80000
    67b8:	9999999a 	.word	0x9999999a
    67bc:	3ff99999 	.word	0x3ff99999
    67c0:	9999999a 	.word	0x9999999a
    67c4:	3ff19999 	.word	0x3ff19999
    67c8:	33333333 	.word	0x33333333
    67cc:	3ff33333 	.word	0x3ff33333
    67d0:	cccccccd 	.word	0xcccccccd
    67d4:	4000cccc 	.word	0x4000cccc
    67d8:	9999999a 	.word	0x9999999a
    67dc:	40019999 	.word	0x40019999
    67e0:	66666666 	.word	0x66666666
    67e4:	3ff66666 	.word	0x3ff66666
    67e8:	cccccccd 	.word	0xcccccccd
    67ec:	3ff4cccc 	.word	0x3ff4cccc
    67f0:	00000000 	.word	0x00000000
    67f4:	3ff80000 	.word	0x3ff80000
    67f8:	9999999a 	.word	0x9999999a
    67fc:	3ff99999 	.word	0x3ff99999
    6800:	9999999a 	.word	0x9999999a
    6804:	3ff19999 	.word	0x3ff19999
    6808:	33333333 	.word	0x33333333
    680c:	3ff33333 	.word	0x3ff33333
    6810:	cccccccd 	.word	0xcccccccd
    6814:	4000cccc 	.word	0x4000cccc
    6818:	9999999a 	.word	0x9999999a
    681c:	40019999 	.word	0x40019999
    6820:	66666666 	.word	0x66666666
    6824:	3ff66666 	.word	0x3ff66666
    6828:	cccccccd 	.word	0xcccccccd
    682c:	3ff4cccc 	.word	0x3ff4cccc
    6830:	00000000 	.word	0x00000000
    6834:	3ff80000 	.word	0x3ff80000
    6838:	9999999a 	.word	0x9999999a
    683c:	3ff99999 	.word	0x3ff99999
    6840:	9999999a 	.word	0x9999999a
    6844:	3ff19999 	.word	0x3ff19999
    6848:	33333333 	.word	0x33333333
    684c:	3ff33333 	.word	0x3ff33333
    6850:	cccccccd 	.word	0xcccccccd
    6854:	4000cccc 	.word	0x4000cccc
    6858:	9999999a 	.word	0x9999999a
    685c:	40019999 	.word	0x40019999
    6860:	66666666 	.word	0x66666666
    6864:	3ff66666 	.word	0x3ff66666
    6868:	cccccccd 	.word	0xcccccccd
    686c:	3ff4cccc 	.word	0x3ff4cccc
    6870:	00000000 	.word	0x00000000
    6874:	3ff80000 	.word	0x3ff80000
    6878:	9999999a 	.word	0x9999999a
    687c:	3ff99999 	.word	0x3ff99999
    6880:	9999999a 	.word	0x9999999a
    6884:	3ff19999 	.word	0x3ff19999
    6888:	33333333 	.word	0x33333333
    688c:	3ff33333 	.word	0x3ff33333
    6890:	cccccccd 	.word	0xcccccccd
    6894:	4000cccc 	.word	0x4000cccc
    6898:	9999999a 	.word	0x9999999a
    689c:	40019999 	.word	0x40019999
    68a0:	66666666 	.word	0x66666666
    68a4:	3ff66666 	.word	0x3ff66666
    68a8:	cccccccd 	.word	0xcccccccd
    68ac:	3ff4cccc 	.word	0x3ff4cccc
    68b0:	00000000 	.word	0x00000000
    68b4:	3ff80000 	.word	0x3ff80000
    68b8:	9999999a 	.word	0x9999999a
    68bc:	3ff99999 	.word	0x3ff99999
    68c0:	9999999a 	.word	0x9999999a
    68c4:	3ff19999 	.word	0x3ff19999
    68c8:	33333333 	.word	0x33333333
    68cc:	3ff33333 	.word	0x3ff33333
    68d0:	cccccccd 	.word	0xcccccccd
    68d4:	4000cccc 	.word	0x4000cccc
    68d8:	9999999a 	.word	0x9999999a
    68dc:	40019999 	.word	0x40019999
    68e0:	66666666 	.word	0x66666666
    68e4:	3ff66666 	.word	0x3ff66666
    68e8:	cccccccd 	.word	0xcccccccd
    68ec:	3ff4cccc 	.word	0x3ff4cccc
    68f0:	00000000 	.word	0x00000000
    68f4:	3ff80000 	.word	0x3ff80000
    68f8:	9999999a 	.word	0x9999999a
    68fc:	3ff99999 	.word	0x3ff99999
    6900:	9999999a 	.word	0x9999999a
    6904:	3ff19999 	.word	0x3ff19999
    6908:	33333333 	.word	0x33333333
    690c:	3ff33333 	.word	0x3ff33333
    6910:	cccccccd 	.word	0xcccccccd
    6914:	4000cccc 	.word	0x4000cccc
    6918:	9999999a 	.word	0x9999999a
    691c:	40019999 	.word	0x40019999
    6920:	66666666 	.word	0x66666666
    6924:	3ff66666 	.word	0x3ff66666
    6928:	cccccccd 	.word	0xcccccccd
    692c:	3ff4cccc 	.word	0x3ff4cccc
    6930:	00000000 	.word	0x00000000
    6934:	3ff80000 	.word	0x3ff80000
    6938:	9999999a 	.word	0x9999999a
    693c:	3ff99999 	.word	0x3ff99999
    6940:	9999999a 	.word	0x9999999a
    6944:	3ff19999 	.word	0x3ff19999
    6948:	33333333 	.word	0x33333333
    694c:	3ff33333 	.word	0x3ff33333
    6950:	cccccccd 	.word	0xcccccccd
    6954:	4000cccc 	.word	0x4000cccc
    6958:	9999999a 	.word	0x9999999a
    695c:	40019999 	.word	0x40019999
    6960:	66666666 	.word	0x66666666
    6964:	3ff66666 	.word	0x3ff66666
    6968:	cccccccd 	.word	0xcccccccd
    696c:	3ff4cccc 	.word	0x3ff4cccc
    6970:	00000000 	.word	0x00000000
    6974:	3ff80000 	.word	0x3ff80000
